
project3.elf:     file format elf32-littlearm


Disassembly of section .isr_vector:

08000000 <g_pfnVectors>:
 8000000:	20018000 	andcs	r8, r1, r0
 8000004:	08003dfd 	stmdaeq	r0, {r0, r2, r3, r4, r5, r6, r7, r8, sl, fp, ip, sp}
 8000008:	08003349 	stmdaeq	r0, {r0, r3, r6, r8, r9, ip, sp}
 800000c:	08003357 	stmdaeq	r0, {r0, r1, r2, r4, r6, r8, r9, ip, sp}
 8000010:	0800335d 	stmdaeq	r0, {r0, r2, r3, r4, r6, r8, r9, ip, sp}
 8000014:	08003363 	stmdaeq	r0, {r0, r1, r5, r6, r8, r9, ip, sp}
 8000018:	08003369 	stmdaeq	r0, {r0, r3, r5, r6, r8, r9, ip, sp}
	...
 800002c:	0800336f 	stmdaeq	r0, {r0, r1, r2, r3, r5, r6, r8, r9, ip, sp}
 8000030:	0800337d 	stmdaeq	r0, {r0, r2, r3, r4, r5, r6, r8, r9, ip, sp}
 8000034:	00000000 	andeq	r0, r0, r0
 8000038:	0800338b 	stmdaeq	r0, {r0, r1, r3, r7, r8, r9, ip, sp}
 800003c:	08003399 	stmdaeq	r0, {r0, r3, r4, r7, r8, r9, ip, sp}
 8000040:	08003e4d 	stmdaeq	r0, {r0, r2, r3, r6, r9, sl, fp, ip, sp}
 8000044:	08003e4d 	stmdaeq	r0, {r0, r2, r3, r6, r9, sl, fp, ip, sp}
 8000048:	08003e4d 	stmdaeq	r0, {r0, r2, r3, r6, r9, sl, fp, ip, sp}
 800004c:	08003e4d 	stmdaeq	r0, {r0, r2, r3, r6, r9, sl, fp, ip, sp}
 8000050:	08003e4d 	stmdaeq	r0, {r0, r2, r3, r6, r9, sl, fp, ip, sp}
 8000054:	08003e4d 	stmdaeq	r0, {r0, r2, r3, r6, r9, sl, fp, ip, sp}
 8000058:	08003e4d 	stmdaeq	r0, {r0, r2, r3, r6, r9, sl, fp, ip, sp}
 800005c:	080033f7 	stmdaeq	r0, {r0, r1, r2, r4, r5, r6, r7, r8, r9, ip, sp}
 8000060:	08003e4d 	stmdaeq	r0, {r0, r2, r3, r6, r9, sl, fp, ip, sp}
 8000064:	08003e4d 	stmdaeq	r0, {r0, r2, r3, r6, r9, sl, fp, ip, sp}
 8000068:	08003e4d 	stmdaeq	r0, {r0, r2, r3, r6, r9, sl, fp, ip, sp}
 800006c:	08003e4d 	stmdaeq	r0, {r0, r2, r3, r6, r9, sl, fp, ip, sp}
 8000070:	08003e4d 	stmdaeq	r0, {r0, r2, r3, r6, r9, sl, fp, ip, sp}
 8000074:	08003e4d 	stmdaeq	r0, {r0, r2, r3, r6, r9, sl, fp, ip, sp}
 8000078:	08003e4d 	stmdaeq	r0, {r0, r2, r3, r6, r9, sl, fp, ip, sp}
 800007c:	08003e4d 	stmdaeq	r0, {r0, r2, r3, r6, r9, sl, fp, ip, sp}
 8000080:	08003e4d 	stmdaeq	r0, {r0, r2, r3, r6, r9, sl, fp, ip, sp}
 8000084:	08003e4d 	stmdaeq	r0, {r0, r2, r3, r6, r9, sl, fp, ip, sp}
 8000088:	08003e4d 	stmdaeq	r0, {r0, r2, r3, r6, r9, sl, fp, ip, sp}
 800008c:	08003e4d 	stmdaeq	r0, {r0, r2, r3, r6, r9, sl, fp, ip, sp}
 8000090:	08003e4d 	stmdaeq	r0, {r0, r2, r3, r6, r9, sl, fp, ip, sp}
 8000094:	08003e4d 	stmdaeq	r0, {r0, r2, r3, r6, r9, sl, fp, ip, sp}
 8000098:	08003e4d 	stmdaeq	r0, {r0, r2, r3, r6, r9, sl, fp, ip, sp}
 800009c:	080033a5 	stmdaeq	r0, {r0, r2, r5, r7, r8, r9, ip, sp}
 80000a0:	08003e4d 	stmdaeq	r0, {r0, r2, r3, r6, r9, sl, fp, ip, sp}
 80000a4:	08002715 	stmdaeq	r0, {r0, r2, r4, r8, r9, sl, sp}
 80000a8:	08003e4d 	stmdaeq	r0, {r0, r2, r3, r6, r9, sl, fp, ip, sp}
 80000ac:	08003e4d 	stmdaeq	r0, {r0, r2, r3, r6, r9, sl, fp, ip, sp}
 80000b0:	08002729 	stmdaeq	r0, {r0, r3, r5, r8, r9, sl, sp}
 80000b4:	08003e4d 	stmdaeq	r0, {r0, r2, r3, r6, r9, sl, fp, ip, sp}
 80000b8:	08003e4d 	stmdaeq	r0, {r0, r2, r3, r6, r9, sl, fp, ip, sp}
 80000bc:	08003e4d 	stmdaeq	r0, {r0, r2, r3, r6, r9, sl, fp, ip, sp}
 80000c0:	08003e4d 	stmdaeq	r0, {r0, r2, r3, r6, r9, sl, fp, ip, sp}
 80000c4:	08003e4d 	stmdaeq	r0, {r0, r2, r3, r6, r9, sl, fp, ip, sp}
 80000c8:	08003e4d 	stmdaeq	r0, {r0, r2, r3, r6, r9, sl, fp, ip, sp}
 80000cc:	08003e4d 	stmdaeq	r0, {r0, r2, r3, r6, r9, sl, fp, ip, sp}
 80000d0:	08003e4d 	stmdaeq	r0, {r0, r2, r3, r6, r9, sl, fp, ip, sp}
 80000d4:	08003e4d 	stmdaeq	r0, {r0, r2, r3, r6, r9, sl, fp, ip, sp}
 80000d8:	08003e4d 	stmdaeq	r0, {r0, r2, r3, r6, r9, sl, fp, ip, sp}
 80000dc:	08003e4d 	stmdaeq	r0, {r0, r2, r3, r6, r9, sl, fp, ip, sp}
 80000e0:	080033c7 	stmdaeq	r0, {r0, r1, r2, r6, r7, r8, r9, ip, sp}
 80000e4:	08003e4d 	stmdaeq	r0, {r0, r2, r3, r6, r9, sl, fp, ip, sp}
 80000e8:	08003e4d 	stmdaeq	r0, {r0, r2, r3, r6, r9, sl, fp, ip, sp}
 80000ec:	08003e4d 	stmdaeq	r0, {r0, r2, r3, r6, r9, sl, fp, ip, sp}
 80000f0:	08003e4d 	stmdaeq	r0, {r0, r2, r3, r6, r9, sl, fp, ip, sp}
 80000f4:	08003e4d 	stmdaeq	r0, {r0, r2, r3, r6, r9, sl, fp, ip, sp}
 80000f8:	08003e4d 	stmdaeq	r0, {r0, r2, r3, r6, r9, sl, fp, ip, sp}
 80000fc:	08003e4d 	stmdaeq	r0, {r0, r2, r3, r6, r9, sl, fp, ip, sp}
 8000100:	08003e4d 	stmdaeq	r0, {r0, r2, r3, r6, r9, sl, fp, ip, sp}
 8000104:	08003e4d 	stmdaeq	r0, {r0, r2, r3, r6, r9, sl, fp, ip, sp}
 8000108:	08003e4d 	stmdaeq	r0, {r0, r2, r3, r6, r9, sl, fp, ip, sp}
 800010c:	08003e4d 	stmdaeq	r0, {r0, r2, r3, r6, r9, sl, fp, ip, sp}
 8000110:	08003e4d 	stmdaeq	r0, {r0, r2, r3, r6, r9, sl, fp, ip, sp}
 8000114:	08003e4d 	stmdaeq	r0, {r0, r2, r3, r6, r9, sl, fp, ip, sp}
 8000118:	08003e4d 	stmdaeq	r0, {r0, r2, r3, r6, r9, sl, fp, ip, sp}
 800011c:	08003e4d 	stmdaeq	r0, {r0, r2, r3, r6, r9, sl, fp, ip, sp}
 8000120:	08003e4d 	stmdaeq	r0, {r0, r2, r3, r6, r9, sl, fp, ip, sp}
 8000124:	08003e4d 	stmdaeq	r0, {r0, r2, r3, r6, r9, sl, fp, ip, sp}
 8000128:	08003e4d 	stmdaeq	r0, {r0, r2, r3, r6, r9, sl, fp, ip, sp}
 800012c:	08003e4d 	stmdaeq	r0, {r0, r2, r3, r6, r9, sl, fp, ip, sp}
 8000130:	08003e4d 	stmdaeq	r0, {r0, r2, r3, r6, r9, sl, fp, ip, sp}
 8000134:	08003e4d 	stmdaeq	r0, {r0, r2, r3, r6, r9, sl, fp, ip, sp}
 8000138:	08003e4d 	stmdaeq	r0, {r0, r2, r3, r6, r9, sl, fp, ip, sp}
 800013c:	08003e4d 	stmdaeq	r0, {r0, r2, r3, r6, r9, sl, fp, ip, sp}
 8000140:	08003e4d 	stmdaeq	r0, {r0, r2, r3, r6, r9, sl, fp, ip, sp}
 8000144:	08003e4d 	stmdaeq	r0, {r0, r2, r3, r6, r9, sl, fp, ip, sp}
 8000148:	08003e4d 	stmdaeq	r0, {r0, r2, r3, r6, r9, sl, fp, ip, sp}
 800014c:	08003e4d 	stmdaeq	r0, {r0, r2, r3, r6, r9, sl, fp, ip, sp}
 8000150:	08003e4d 	stmdaeq	r0, {r0, r2, r3, r6, r9, sl, fp, ip, sp}
 8000154:	08003e4d 	stmdaeq	r0, {r0, r2, r3, r6, r9, sl, fp, ip, sp}
 8000158:	08003e4d 	stmdaeq	r0, {r0, r2, r3, r6, r9, sl, fp, ip, sp}
 800015c:	08003e4d 	stmdaeq	r0, {r0, r2, r3, r6, r9, sl, fp, ip, sp}
 8000160:	08003e4d 	stmdaeq	r0, {r0, r2, r3, r6, r9, sl, fp, ip, sp}
 8000164:	08003e4d 	stmdaeq	r0, {r0, r2, r3, r6, r9, sl, fp, ip, sp}
 8000168:	08003e4d 	stmdaeq	r0, {r0, r2, r3, r6, r9, sl, fp, ip, sp}
 800016c:	08003e4d 	stmdaeq	r0, {r0, r2, r3, r6, r9, sl, fp, ip, sp}
 8000170:	08003e4d 	stmdaeq	r0, {r0, r2, r3, r6, r9, sl, fp, ip, sp}
 8000174:	08003e4d 	stmdaeq	r0, {r0, r2, r3, r6, r9, sl, fp, ip, sp}
	...
 8000180:	08003e4d 	stmdaeq	r0, {r0, r2, r3, r6, r9, sl, fp, ip, sp}
 8000184:	08003e4d 	stmdaeq	r0, {r0, r2, r3, r6, r9, sl, fp, ip, sp}

Disassembly of section .text:

08000190 <__do_global_dtors_aux>:
 8000190:	b510      	push	{r4, lr}
 8000192:	4c05      	ldr	r4, [pc, #20]	; (80001a8 <__do_global_dtors_aux+0x18>)
 8000194:	7823      	ldrb	r3, [r4, #0]
 8000196:	b933      	cbnz	r3, 80001a6 <__do_global_dtors_aux+0x16>
 8000198:	4b04      	ldr	r3, [pc, #16]	; (80001ac <__do_global_dtors_aux+0x1c>)
 800019a:	b113      	cbz	r3, 80001a2 <__do_global_dtors_aux+0x12>
 800019c:	4804      	ldr	r0, [pc, #16]	; (80001b0 <__do_global_dtors_aux+0x20>)
 800019e:	f3af 8000 	nop.w
 80001a2:	2301      	movs	r3, #1
 80001a4:	7023      	strb	r3, [r4, #0]
 80001a6:	bd10      	pop	{r4, pc}
 80001a8:	20000b5c 	andcs	r0, r0, ip, asr fp
 80001ac:	00000000 	andeq	r0, r0, r0
 80001b0:	080104e8 	stmdaeq	r1, {r3, r5, r6, r7, sl}

080001b4 <frame_dummy>:
 80001b4:	b508      	push	{r3, lr}
 80001b6:	4b03      	ldr	r3, [pc, #12]	; (80001c4 <frame_dummy+0x10>)
 80001b8:	b11b      	cbz	r3, 80001c2 <frame_dummy+0xe>
 80001ba:	4903      	ldr	r1, [pc, #12]	; (80001c8 <frame_dummy+0x14>)
 80001bc:	4803      	ldr	r0, [pc, #12]	; (80001cc <frame_dummy+0x18>)
 80001be:	f3af 8000 	nop.w
 80001c2:	bd08      	pop	{r3, pc}
 80001c4:	00000000 	andeq	r0, r0, r0
 80001c8:	20000b60 	andcs	r0, r0, r0, ror #22
 80001cc:	080104e8 	stmdaeq	r1, {r3, r5, r6, r7, sl}

080001d0 <strcmp>:
 80001d0:	f810 2b01 	ldrb.w	r2, [r0], #1
 80001d4:	f811 3b01 	ldrb.w	r3, [r1], #1
 80001d8:	2a01      	cmp	r2, #1
 80001da:	bf28      	it	cs
 80001dc:	429a      	cmpcs	r2, r3
 80001de:	d0f7      	beq.n	80001d0 <strcmp>
 80001e0:	1ad0      	subs	r0, r2, r3
 80001e2:	4770      	bx	lr

080001e4 <strlen>:
 80001e4:	4603      	mov	r3, r0
 80001e6:	f813 2b01 	ldrb.w	r2, [r3], #1
 80001ea:	2a00      	cmp	r2, #0
 80001ec:	d1fb      	bne.n	80001e6 <strlen+0x2>
 80001ee:	1a18      	subs	r0, r3, r0
 80001f0:	3801      	subs	r0, #1
 80001f2:	4770      	bx	lr
	...

08000200 <memchr>:
 8000200:	f001 01ff 	and.w	r1, r1, #255	; 0xff
 8000204:	2a10      	cmp	r2, #16
 8000206:	db2b      	blt.n	8000260 <memchr+0x60>
 8000208:	f010 0f07 	tst.w	r0, #7
 800020c:	d008      	beq.n	8000220 <memchr+0x20>
 800020e:	f810 3b01 	ldrb.w	r3, [r0], #1
 8000212:	3a01      	subs	r2, #1
 8000214:	428b      	cmp	r3, r1
 8000216:	d02d      	beq.n	8000274 <memchr+0x74>
 8000218:	f010 0f07 	tst.w	r0, #7
 800021c:	b342      	cbz	r2, 8000270 <memchr+0x70>
 800021e:	d1f6      	bne.n	800020e <memchr+0xe>
 8000220:	b4f0      	push	{r4, r5, r6, r7}
 8000222:	ea41 2101 	orr.w	r1, r1, r1, lsl #8
 8000226:	ea41 4101 	orr.w	r1, r1, r1, lsl #16
 800022a:	f022 0407 	bic.w	r4, r2, #7
 800022e:	f07f 0700 	mvns.w	r7, #0
 8000232:	2300      	movs	r3, #0
 8000234:	e8f0 5602 	ldrd	r5, r6, [r0], #8
 8000238:	3c08      	subs	r4, #8
 800023a:	ea85 0501 	eor.w	r5, r5, r1
 800023e:	ea86 0601 	eor.w	r6, r6, r1
 8000242:	fa85 f547 	uadd8	r5, r5, r7
 8000246:	faa3 f587 	sel	r5, r3, r7
 800024a:	fa86 f647 	uadd8	r6, r6, r7
 800024e:	faa5 f687 	sel	r6, r5, r7
 8000252:	b98e      	cbnz	r6, 8000278 <memchr+0x78>
 8000254:	d1ee      	bne.n	8000234 <memchr+0x34>
 8000256:	bcf0      	pop	{r4, r5, r6, r7}
 8000258:	f001 01ff 	and.w	r1, r1, #255	; 0xff
 800025c:	f002 0207 	and.w	r2, r2, #7
 8000260:	b132      	cbz	r2, 8000270 <memchr+0x70>
 8000262:	f810 3b01 	ldrb.w	r3, [r0], #1
 8000266:	3a01      	subs	r2, #1
 8000268:	ea83 0301 	eor.w	r3, r3, r1
 800026c:	b113      	cbz	r3, 8000274 <memchr+0x74>
 800026e:	d1f8      	bne.n	8000262 <memchr+0x62>
 8000270:	2000      	movs	r0, #0
 8000272:	4770      	bx	lr
 8000274:	3801      	subs	r0, #1
 8000276:	4770      	bx	lr
 8000278:	2d00      	cmp	r5, #0
 800027a:	bf06      	itte	eq
 800027c:	4635      	moveq	r5, r6
 800027e:	3803      	subeq	r0, #3
 8000280:	3807      	subne	r0, #7
 8000282:	f015 0f01 	tst.w	r5, #1
 8000286:	d107      	bne.n	8000298 <memchr+0x98>
 8000288:	3001      	adds	r0, #1
 800028a:	f415 7f80 	tst.w	r5, #256	; 0x100
 800028e:	bf02      	ittt	eq
 8000290:	3001      	addeq	r0, #1
 8000292:	f415 3fc0 	tsteq.w	r5, #98304	; 0x18000
 8000296:	3001      	addeq	r0, #1
 8000298:	bcf0      	pop	{r4, r5, r6, r7}
 800029a:	3801      	subs	r0, #1
 800029c:	4770      	bx	lr
 800029e:	bf00      	nop

080002a0 <__aeabi_drsub>:
 80002a0:	f081 4100 	eor.w	r1, r1, #2147483648	; 0x80000000
 80002a4:	e002      	b.n	80002ac <__adddf3>
 80002a6:	bf00      	nop

080002a8 <__aeabi_dsub>:
 80002a8:	f083 4300 	eor.w	r3, r3, #2147483648	; 0x80000000

080002ac <__adddf3>:
 80002ac:	b530      	push	{r4, r5, lr}
 80002ae:	ea4f 0441 	mov.w	r4, r1, lsl #1
 80002b2:	ea4f 0543 	mov.w	r5, r3, lsl #1
 80002b6:	ea94 0f05 	teq	r4, r5
 80002ba:	bf08      	it	eq
 80002bc:	ea90 0f02 	teqeq	r0, r2
 80002c0:	bf1f      	itttt	ne
 80002c2:	ea54 0c00 	orrsne.w	ip, r4, r0
 80002c6:	ea55 0c02 	orrsne.w	ip, r5, r2
 80002ca:	ea7f 5c64 	mvnsne.w	ip, r4, asr #21
 80002ce:	ea7f 5c65 	mvnsne.w	ip, r5, asr #21
 80002d2:	f000 80e2 	beq.w	800049a <__adddf3+0x1ee>
 80002d6:	ea4f 5454 	mov.w	r4, r4, lsr #21
 80002da:	ebd4 5555 	rsbs	r5, r4, r5, lsr #21
 80002de:	bfb8      	it	lt
 80002e0:	426d      	neglt	r5, r5
 80002e2:	dd0c      	ble.n	80002fe <__adddf3+0x52>
 80002e4:	442c      	add	r4, r5
 80002e6:	ea80 0202 	eor.w	r2, r0, r2
 80002ea:	ea81 0303 	eor.w	r3, r1, r3
 80002ee:	ea82 0000 	eor.w	r0, r2, r0
 80002f2:	ea83 0101 	eor.w	r1, r3, r1
 80002f6:	ea80 0202 	eor.w	r2, r0, r2
 80002fa:	ea81 0303 	eor.w	r3, r1, r3
 80002fe:	2d36      	cmp	r5, #54	; 0x36
 8000300:	bf88      	it	hi
 8000302:	bd30      	pophi	{r4, r5, pc}
 8000304:	f011 4f00 	tst.w	r1, #2147483648	; 0x80000000
 8000308:	ea4f 3101 	mov.w	r1, r1, lsl #12
 800030c:	f44f 1c80 	mov.w	ip, #1048576	; 0x100000
 8000310:	ea4c 3111 	orr.w	r1, ip, r1, lsr #12
 8000314:	d002      	beq.n	800031c <__adddf3+0x70>
 8000316:	4240      	negs	r0, r0
 8000318:	eb61 0141 	sbc.w	r1, r1, r1, lsl #1
 800031c:	f013 4f00 	tst.w	r3, #2147483648	; 0x80000000
 8000320:	ea4f 3303 	mov.w	r3, r3, lsl #12
 8000324:	ea4c 3313 	orr.w	r3, ip, r3, lsr #12
 8000328:	d002      	beq.n	8000330 <__adddf3+0x84>
 800032a:	4252      	negs	r2, r2
 800032c:	eb63 0343 	sbc.w	r3, r3, r3, lsl #1
 8000330:	ea94 0f05 	teq	r4, r5
 8000334:	f000 80a7 	beq.w	8000486 <__adddf3+0x1da>
 8000338:	f1a4 0401 	sub.w	r4, r4, #1
 800033c:	f1d5 0e20 	rsbs	lr, r5, #32
 8000340:	db0d      	blt.n	800035e <__adddf3+0xb2>
 8000342:	fa02 fc0e 	lsl.w	ip, r2, lr
 8000346:	fa22 f205 	lsr.w	r2, r2, r5
 800034a:	1880      	adds	r0, r0, r2
 800034c:	f141 0100 	adc.w	r1, r1, #0
 8000350:	fa03 f20e 	lsl.w	r2, r3, lr
 8000354:	1880      	adds	r0, r0, r2
 8000356:	fa43 f305 	asr.w	r3, r3, r5
 800035a:	4159      	adcs	r1, r3
 800035c:	e00e      	b.n	800037c <__adddf3+0xd0>
 800035e:	f1a5 0520 	sub.w	r5, r5, #32
 8000362:	f10e 0e20 	add.w	lr, lr, #32
 8000366:	2a01      	cmp	r2, #1
 8000368:	fa03 fc0e 	lsl.w	ip, r3, lr
 800036c:	bf28      	it	cs
 800036e:	f04c 0c02 	orrcs.w	ip, ip, #2
 8000372:	fa43 f305 	asr.w	r3, r3, r5
 8000376:	18c0      	adds	r0, r0, r3
 8000378:	eb51 71e3 	adcs.w	r1, r1, r3, asr #31
 800037c:	f001 4500 	and.w	r5, r1, #2147483648	; 0x80000000
 8000380:	d507      	bpl.n	8000392 <__adddf3+0xe6>
 8000382:	f04f 0e00 	mov.w	lr, #0
 8000386:	f1dc 0c00 	rsbs	ip, ip, #0
 800038a:	eb7e 0000 	sbcs.w	r0, lr, r0
 800038e:	eb6e 0101 	sbc.w	r1, lr, r1
 8000392:	f5b1 1f80 	cmp.w	r1, #1048576	; 0x100000
 8000396:	d31b      	bcc.n	80003d0 <__adddf3+0x124>
 8000398:	f5b1 1f00 	cmp.w	r1, #2097152	; 0x200000
 800039c:	d30c      	bcc.n	80003b8 <__adddf3+0x10c>
 800039e:	0849      	lsrs	r1, r1, #1
 80003a0:	ea5f 0030 	movs.w	r0, r0, rrx
 80003a4:	ea4f 0c3c 	mov.w	ip, ip, rrx
 80003a8:	f104 0401 	add.w	r4, r4, #1
 80003ac:	ea4f 5244 	mov.w	r2, r4, lsl #21
 80003b0:	f512 0f80 	cmn.w	r2, #4194304	; 0x400000
 80003b4:	f080 809a 	bcs.w	80004ec <__adddf3+0x240>
 80003b8:	f1bc 4f00 	cmp.w	ip, #2147483648	; 0x80000000
 80003bc:	bf08      	it	eq
 80003be:	ea5f 0c50 	movseq.w	ip, r0, lsr #1
 80003c2:	f150 0000 	adcs.w	r0, r0, #0
 80003c6:	eb41 5104 	adc.w	r1, r1, r4, lsl #20
 80003ca:	ea41 0105 	orr.w	r1, r1, r5
 80003ce:	bd30      	pop	{r4, r5, pc}
 80003d0:	ea5f 0c4c 	movs.w	ip, ip, lsl #1
 80003d4:	4140      	adcs	r0, r0
 80003d6:	eb41 0101 	adc.w	r1, r1, r1
 80003da:	3c01      	subs	r4, #1
 80003dc:	bf28      	it	cs
 80003de:	f5b1 1f80 	cmpcs.w	r1, #1048576	; 0x100000
 80003e2:	d2e9      	bcs.n	80003b8 <__adddf3+0x10c>
 80003e4:	f091 0f00 	teq	r1, #0
 80003e8:	bf04      	itt	eq
 80003ea:	4601      	moveq	r1, r0
 80003ec:	2000      	moveq	r0, #0
 80003ee:	fab1 f381 	clz	r3, r1
 80003f2:	bf08      	it	eq
 80003f4:	3320      	addeq	r3, #32
 80003f6:	f1a3 030b 	sub.w	r3, r3, #11
 80003fa:	f1b3 0220 	subs.w	r2, r3, #32
 80003fe:	da0c      	bge.n	800041a <__adddf3+0x16e>
 8000400:	320c      	adds	r2, #12
 8000402:	dd08      	ble.n	8000416 <__adddf3+0x16a>
 8000404:	f102 0c14 	add.w	ip, r2, #20
 8000408:	f1c2 020c 	rsb	r2, r2, #12
 800040c:	fa01 f00c 	lsl.w	r0, r1, ip
 8000410:	fa21 f102 	lsr.w	r1, r1, r2
 8000414:	e00c      	b.n	8000430 <__adddf3+0x184>
 8000416:	f102 0214 	add.w	r2, r2, #20
 800041a:	bfd8      	it	le
 800041c:	f1c2 0c20 	rsble	ip, r2, #32
 8000420:	fa01 f102 	lsl.w	r1, r1, r2
 8000424:	fa20 fc0c 	lsr.w	ip, r0, ip
 8000428:	bfdc      	itt	le
 800042a:	ea41 010c 	orrle.w	r1, r1, ip
 800042e:	4090      	lslle	r0, r2
 8000430:	1ae4      	subs	r4, r4, r3
 8000432:	bfa2      	ittt	ge
 8000434:	eb01 5104 	addge.w	r1, r1, r4, lsl #20
 8000438:	4329      	orrge	r1, r5
 800043a:	bd30      	popge	{r4, r5, pc}
 800043c:	ea6f 0404 	mvn.w	r4, r4
 8000440:	3c1f      	subs	r4, #31
 8000442:	da1c      	bge.n	800047e <__adddf3+0x1d2>
 8000444:	340c      	adds	r4, #12
 8000446:	dc0e      	bgt.n	8000466 <__adddf3+0x1ba>
 8000448:	f104 0414 	add.w	r4, r4, #20
 800044c:	f1c4 0220 	rsb	r2, r4, #32
 8000450:	fa20 f004 	lsr.w	r0, r0, r4
 8000454:	fa01 f302 	lsl.w	r3, r1, r2
 8000458:	ea40 0003 	orr.w	r0, r0, r3
 800045c:	fa21 f304 	lsr.w	r3, r1, r4
 8000460:	ea45 0103 	orr.w	r1, r5, r3
 8000464:	bd30      	pop	{r4, r5, pc}
 8000466:	f1c4 040c 	rsb	r4, r4, #12
 800046a:	f1c4 0220 	rsb	r2, r4, #32
 800046e:	fa20 f002 	lsr.w	r0, r0, r2
 8000472:	fa01 f304 	lsl.w	r3, r1, r4
 8000476:	ea40 0003 	orr.w	r0, r0, r3
 800047a:	4629      	mov	r1, r5
 800047c:	bd30      	pop	{r4, r5, pc}
 800047e:	fa21 f004 	lsr.w	r0, r1, r4
 8000482:	4629      	mov	r1, r5
 8000484:	bd30      	pop	{r4, r5, pc}
 8000486:	f094 0f00 	teq	r4, #0
 800048a:	f483 1380 	eor.w	r3, r3, #1048576	; 0x100000
 800048e:	bf06      	itte	eq
 8000490:	f481 1180 	eoreq.w	r1, r1, #1048576	; 0x100000
 8000494:	3401      	addeq	r4, #1
 8000496:	3d01      	subne	r5, #1
 8000498:	e74e      	b.n	8000338 <__adddf3+0x8c>
 800049a:	ea7f 5c64 	mvns.w	ip, r4, asr #21
 800049e:	bf18      	it	ne
 80004a0:	ea7f 5c65 	mvnsne.w	ip, r5, asr #21
 80004a4:	d029      	beq.n	80004fa <__adddf3+0x24e>
 80004a6:	ea94 0f05 	teq	r4, r5
 80004aa:	bf08      	it	eq
 80004ac:	ea90 0f02 	teqeq	r0, r2
 80004b0:	d005      	beq.n	80004be <__adddf3+0x212>
 80004b2:	ea54 0c00 	orrs.w	ip, r4, r0
 80004b6:	bf04      	itt	eq
 80004b8:	4619      	moveq	r1, r3
 80004ba:	4610      	moveq	r0, r2
 80004bc:	bd30      	pop	{r4, r5, pc}
 80004be:	ea91 0f03 	teq	r1, r3
 80004c2:	bf1e      	ittt	ne
 80004c4:	2100      	movne	r1, #0
 80004c6:	2000      	movne	r0, #0
 80004c8:	bd30      	popne	{r4, r5, pc}
 80004ca:	ea5f 5c54 	movs.w	ip, r4, lsr #21
 80004ce:	d105      	bne.n	80004dc <__adddf3+0x230>
 80004d0:	0040      	lsls	r0, r0, #1
 80004d2:	4149      	adcs	r1, r1
 80004d4:	bf28      	it	cs
 80004d6:	f041 4100 	orrcs.w	r1, r1, #2147483648	; 0x80000000
 80004da:	bd30      	pop	{r4, r5, pc}
 80004dc:	f514 0480 	adds.w	r4, r4, #4194304	; 0x400000
 80004e0:	bf3c      	itt	cc
 80004e2:	f501 1180 	addcc.w	r1, r1, #1048576	; 0x100000
 80004e6:	bd30      	popcc	{r4, r5, pc}
 80004e8:	f001 4500 	and.w	r5, r1, #2147483648	; 0x80000000
 80004ec:	f045 41fe 	orr.w	r1, r5, #2130706432	; 0x7f000000
 80004f0:	f441 0170 	orr.w	r1, r1, #15728640	; 0xf00000
 80004f4:	f04f 0000 	mov.w	r0, #0
 80004f8:	bd30      	pop	{r4, r5, pc}
 80004fa:	ea7f 5c64 	mvns.w	ip, r4, asr #21
 80004fe:	bf1a      	itte	ne
 8000500:	4619      	movne	r1, r3
 8000502:	4610      	movne	r0, r2
 8000504:	ea7f 5c65 	mvnseq.w	ip, r5, asr #21
 8000508:	bf1c      	itt	ne
 800050a:	460b      	movne	r3, r1
 800050c:	4602      	movne	r2, r0
 800050e:	ea50 3401 	orrs.w	r4, r0, r1, lsl #12
 8000512:	bf06      	itte	eq
 8000514:	ea52 3503 	orrseq.w	r5, r2, r3, lsl #12
 8000518:	ea91 0f03 	teqeq	r1, r3
 800051c:	f441 2100 	orrne.w	r1, r1, #524288	; 0x80000
 8000520:	bd30      	pop	{r4, r5, pc}
 8000522:	bf00      	nop

08000524 <__aeabi_ui2d>:
 8000524:	f090 0f00 	teq	r0, #0
 8000528:	bf04      	itt	eq
 800052a:	2100      	moveq	r1, #0
 800052c:	4770      	bxeq	lr
 800052e:	b530      	push	{r4, r5, lr}
 8000530:	f44f 6480 	mov.w	r4, #1024	; 0x400
 8000534:	f104 0432 	add.w	r4, r4, #50	; 0x32
 8000538:	f04f 0500 	mov.w	r5, #0
 800053c:	f04f 0100 	mov.w	r1, #0
 8000540:	e750      	b.n	80003e4 <__adddf3+0x138>
 8000542:	bf00      	nop

08000544 <__aeabi_i2d>:
 8000544:	f090 0f00 	teq	r0, #0
 8000548:	bf04      	itt	eq
 800054a:	2100      	moveq	r1, #0
 800054c:	4770      	bxeq	lr
 800054e:	b530      	push	{r4, r5, lr}
 8000550:	f44f 6480 	mov.w	r4, #1024	; 0x400
 8000554:	f104 0432 	add.w	r4, r4, #50	; 0x32
 8000558:	f010 4500 	ands.w	r5, r0, #2147483648	; 0x80000000
 800055c:	bf48      	it	mi
 800055e:	4240      	negmi	r0, r0
 8000560:	f04f 0100 	mov.w	r1, #0
 8000564:	e73e      	b.n	80003e4 <__adddf3+0x138>
 8000566:	bf00      	nop

08000568 <__aeabi_f2d>:
 8000568:	0042      	lsls	r2, r0, #1
 800056a:	ea4f 01e2 	mov.w	r1, r2, asr #3
 800056e:	ea4f 0131 	mov.w	r1, r1, rrx
 8000572:	ea4f 7002 	mov.w	r0, r2, lsl #28
 8000576:	bf1f      	itttt	ne
 8000578:	f012 437f 	andsne.w	r3, r2, #4278190080	; 0xff000000
 800057c:	f093 4f7f 	teqne	r3, #4278190080	; 0xff000000
 8000580:	f081 5160 	eorne.w	r1, r1, #939524096	; 0x38000000
 8000584:	4770      	bxne	lr
 8000586:	f032 427f 	bics.w	r2, r2, #4278190080	; 0xff000000
 800058a:	bf08      	it	eq
 800058c:	4770      	bxeq	lr
 800058e:	f093 4f7f 	teq	r3, #4278190080	; 0xff000000
 8000592:	bf04      	itt	eq
 8000594:	f441 2100 	orreq.w	r1, r1, #524288	; 0x80000
 8000598:	4770      	bxeq	lr
 800059a:	b530      	push	{r4, r5, lr}
 800059c:	f44f 7460 	mov.w	r4, #896	; 0x380
 80005a0:	f001 4500 	and.w	r5, r1, #2147483648	; 0x80000000
 80005a4:	f021 4100 	bic.w	r1, r1, #2147483648	; 0x80000000
 80005a8:	e71c      	b.n	80003e4 <__adddf3+0x138>
 80005aa:	bf00      	nop

080005ac <__aeabi_ul2d>:
 80005ac:	ea50 0201 	orrs.w	r2, r0, r1
 80005b0:	bf08      	it	eq
 80005b2:	4770      	bxeq	lr
 80005b4:	b530      	push	{r4, r5, lr}
 80005b6:	f04f 0500 	mov.w	r5, #0
 80005ba:	e00a      	b.n	80005d2 <__aeabi_l2d+0x16>

080005bc <__aeabi_l2d>:
 80005bc:	ea50 0201 	orrs.w	r2, r0, r1
 80005c0:	bf08      	it	eq
 80005c2:	4770      	bxeq	lr
 80005c4:	b530      	push	{r4, r5, lr}
 80005c6:	f011 4500 	ands.w	r5, r1, #2147483648	; 0x80000000
 80005ca:	d502      	bpl.n	80005d2 <__aeabi_l2d+0x16>
 80005cc:	4240      	negs	r0, r0
 80005ce:	eb61 0141 	sbc.w	r1, r1, r1, lsl #1
 80005d2:	f44f 6480 	mov.w	r4, #1024	; 0x400
 80005d6:	f104 0432 	add.w	r4, r4, #50	; 0x32
 80005da:	ea5f 5c91 	movs.w	ip, r1, lsr #22
 80005de:	f43f aed8 	beq.w	8000392 <__adddf3+0xe6>
 80005e2:	f04f 0203 	mov.w	r2, #3
 80005e6:	ea5f 0cdc 	movs.w	ip, ip, lsr #3
 80005ea:	bf18      	it	ne
 80005ec:	3203      	addne	r2, #3
 80005ee:	ea5f 0cdc 	movs.w	ip, ip, lsr #3
 80005f2:	bf18      	it	ne
 80005f4:	3203      	addne	r2, #3
 80005f6:	eb02 02dc 	add.w	r2, r2, ip, lsr #3
 80005fa:	f1c2 0320 	rsb	r3, r2, #32
 80005fe:	fa00 fc03 	lsl.w	ip, r0, r3
 8000602:	fa20 f002 	lsr.w	r0, r0, r2
 8000606:	fa01 fe03 	lsl.w	lr, r1, r3
 800060a:	ea40 000e 	orr.w	r0, r0, lr
 800060e:	fa21 f102 	lsr.w	r1, r1, r2
 8000612:	4414      	add	r4, r2
 8000614:	e6bd      	b.n	8000392 <__adddf3+0xe6>
 8000616:	bf00      	nop

08000618 <__aeabi_dmul>:
 8000618:	b570      	push	{r4, r5, r6, lr}
 800061a:	f04f 0cff 	mov.w	ip, #255	; 0xff
 800061e:	f44c 6ce0 	orr.w	ip, ip, #1792	; 0x700
 8000622:	ea1c 5411 	ands.w	r4, ip, r1, lsr #20
 8000626:	bf1d      	ittte	ne
 8000628:	ea1c 5513 	andsne.w	r5, ip, r3, lsr #20
 800062c:	ea94 0f0c 	teqne	r4, ip
 8000630:	ea95 0f0c 	teqne	r5, ip
 8000634:	f000 f8de 	bleq	80007f4 <__aeabi_dmul+0x1dc>
 8000638:	442c      	add	r4, r5
 800063a:	ea81 0603 	eor.w	r6, r1, r3
 800063e:	ea21 514c 	bic.w	r1, r1, ip, lsl #21
 8000642:	ea23 534c 	bic.w	r3, r3, ip, lsl #21
 8000646:	ea50 3501 	orrs.w	r5, r0, r1, lsl #12
 800064a:	bf18      	it	ne
 800064c:	ea52 3503 	orrsne.w	r5, r2, r3, lsl #12
 8000650:	f441 1180 	orr.w	r1, r1, #1048576	; 0x100000
 8000654:	f443 1380 	orr.w	r3, r3, #1048576	; 0x100000
 8000658:	d038      	beq.n	80006cc <__aeabi_dmul+0xb4>
 800065a:	fba0 ce02 	umull	ip, lr, r0, r2
 800065e:	f04f 0500 	mov.w	r5, #0
 8000662:	fbe1 e502 	umlal	lr, r5, r1, r2
 8000666:	f006 4200 	and.w	r2, r6, #2147483648	; 0x80000000
 800066a:	fbe0 e503 	umlal	lr, r5, r0, r3
 800066e:	f04f 0600 	mov.w	r6, #0
 8000672:	fbe1 5603 	umlal	r5, r6, r1, r3
 8000676:	f09c 0f00 	teq	ip, #0
 800067a:	bf18      	it	ne
 800067c:	f04e 0e01 	orrne.w	lr, lr, #1
 8000680:	f1a4 04ff 	sub.w	r4, r4, #255	; 0xff
 8000684:	f5b6 7f00 	cmp.w	r6, #512	; 0x200
 8000688:	f564 7440 	sbc.w	r4, r4, #768	; 0x300
 800068c:	d204      	bcs.n	8000698 <__aeabi_dmul+0x80>
 800068e:	ea5f 0e4e 	movs.w	lr, lr, lsl #1
 8000692:	416d      	adcs	r5, r5
 8000694:	eb46 0606 	adc.w	r6, r6, r6
 8000698:	ea42 21c6 	orr.w	r1, r2, r6, lsl #11
 800069c:	ea41 5155 	orr.w	r1, r1, r5, lsr #21
 80006a0:	ea4f 20c5 	mov.w	r0, r5, lsl #11
 80006a4:	ea40 505e 	orr.w	r0, r0, lr, lsr #21
 80006a8:	ea4f 2ece 	mov.w	lr, lr, lsl #11
 80006ac:	f1b4 0cfd 	subs.w	ip, r4, #253	; 0xfd
 80006b0:	bf88      	it	hi
 80006b2:	f5bc 6fe0 	cmphi.w	ip, #1792	; 0x700
 80006b6:	d81e      	bhi.n	80006f6 <__aeabi_dmul+0xde>
 80006b8:	f1be 4f00 	cmp.w	lr, #2147483648	; 0x80000000
 80006bc:	bf08      	it	eq
 80006be:	ea5f 0e50 	movseq.w	lr, r0, lsr #1
 80006c2:	f150 0000 	adcs.w	r0, r0, #0
 80006c6:	eb41 5104 	adc.w	r1, r1, r4, lsl #20
 80006ca:	bd70      	pop	{r4, r5, r6, pc}
 80006cc:	f006 4600 	and.w	r6, r6, #2147483648	; 0x80000000
 80006d0:	ea46 0101 	orr.w	r1, r6, r1
 80006d4:	ea40 0002 	orr.w	r0, r0, r2
 80006d8:	ea81 0103 	eor.w	r1, r1, r3
 80006dc:	ebb4 045c 	subs.w	r4, r4, ip, lsr #1
 80006e0:	bfc2      	ittt	gt
 80006e2:	ebd4 050c 	rsbsgt	r5, r4, ip
 80006e6:	ea41 5104 	orrgt.w	r1, r1, r4, lsl #20
 80006ea:	bd70      	popgt	{r4, r5, r6, pc}
 80006ec:	f441 1180 	orr.w	r1, r1, #1048576	; 0x100000
 80006f0:	f04f 0e00 	mov.w	lr, #0
 80006f4:	3c01      	subs	r4, #1
 80006f6:	f300 80ab 	bgt.w	8000850 <__aeabi_dmul+0x238>
 80006fa:	f114 0f36 	cmn.w	r4, #54	; 0x36
 80006fe:	bfde      	ittt	le
 8000700:	2000      	movle	r0, #0
 8000702:	f001 4100 	andle.w	r1, r1, #2147483648	; 0x80000000
 8000706:	bd70      	pople	{r4, r5, r6, pc}
 8000708:	f1c4 0400 	rsb	r4, r4, #0
 800070c:	3c20      	subs	r4, #32
 800070e:	da35      	bge.n	800077c <__aeabi_dmul+0x164>
 8000710:	340c      	adds	r4, #12
 8000712:	dc1b      	bgt.n	800074c <__aeabi_dmul+0x134>
 8000714:	f104 0414 	add.w	r4, r4, #20
 8000718:	f1c4 0520 	rsb	r5, r4, #32
 800071c:	fa00 f305 	lsl.w	r3, r0, r5
 8000720:	fa20 f004 	lsr.w	r0, r0, r4
 8000724:	fa01 f205 	lsl.w	r2, r1, r5
 8000728:	ea40 0002 	orr.w	r0, r0, r2
 800072c:	f001 4200 	and.w	r2, r1, #2147483648	; 0x80000000
 8000730:	f021 4100 	bic.w	r1, r1, #2147483648	; 0x80000000
 8000734:	eb10 70d3 	adds.w	r0, r0, r3, lsr #31
 8000738:	fa21 f604 	lsr.w	r6, r1, r4
 800073c:	eb42 0106 	adc.w	r1, r2, r6
 8000740:	ea5e 0e43 	orrs.w	lr, lr, r3, lsl #1
 8000744:	bf08      	it	eq
 8000746:	ea20 70d3 	biceq.w	r0, r0, r3, lsr #31
 800074a:	bd70      	pop	{r4, r5, r6, pc}
 800074c:	f1c4 040c 	rsb	r4, r4, #12
 8000750:	f1c4 0520 	rsb	r5, r4, #32
 8000754:	fa00 f304 	lsl.w	r3, r0, r4
 8000758:	fa20 f005 	lsr.w	r0, r0, r5
 800075c:	fa01 f204 	lsl.w	r2, r1, r4
 8000760:	ea40 0002 	orr.w	r0, r0, r2
 8000764:	f001 4100 	and.w	r1, r1, #2147483648	; 0x80000000
 8000768:	eb10 70d3 	adds.w	r0, r0, r3, lsr #31
 800076c:	f141 0100 	adc.w	r1, r1, #0
 8000770:	ea5e 0e43 	orrs.w	lr, lr, r3, lsl #1
 8000774:	bf08      	it	eq
 8000776:	ea20 70d3 	biceq.w	r0, r0, r3, lsr #31
 800077a:	bd70      	pop	{r4, r5, r6, pc}
 800077c:	f1c4 0520 	rsb	r5, r4, #32
 8000780:	fa00 f205 	lsl.w	r2, r0, r5
 8000784:	ea4e 0e02 	orr.w	lr, lr, r2
 8000788:	fa20 f304 	lsr.w	r3, r0, r4
 800078c:	fa01 f205 	lsl.w	r2, r1, r5
 8000790:	ea43 0302 	orr.w	r3, r3, r2
 8000794:	fa21 f004 	lsr.w	r0, r1, r4
 8000798:	f001 4100 	and.w	r1, r1, #2147483648	; 0x80000000
 800079c:	fa21 f204 	lsr.w	r2, r1, r4
 80007a0:	ea20 0002 	bic.w	r0, r0, r2
 80007a4:	eb00 70d3 	add.w	r0, r0, r3, lsr #31
 80007a8:	ea5e 0e43 	orrs.w	lr, lr, r3, lsl #1
 80007ac:	bf08      	it	eq
 80007ae:	ea20 70d3 	biceq.w	r0, r0, r3, lsr #31
 80007b2:	bd70      	pop	{r4, r5, r6, pc}
 80007b4:	f094 0f00 	teq	r4, #0
 80007b8:	d10f      	bne.n	80007da <__aeabi_dmul+0x1c2>
 80007ba:	f001 4600 	and.w	r6, r1, #2147483648	; 0x80000000
 80007be:	0040      	lsls	r0, r0, #1
 80007c0:	eb41 0101 	adc.w	r1, r1, r1
 80007c4:	f411 1f80 	tst.w	r1, #1048576	; 0x100000
 80007c8:	bf08      	it	eq
 80007ca:	3c01      	subeq	r4, #1
 80007cc:	d0f7      	beq.n	80007be <__aeabi_dmul+0x1a6>
 80007ce:	ea41 0106 	orr.w	r1, r1, r6
 80007d2:	f095 0f00 	teq	r5, #0
 80007d6:	bf18      	it	ne
 80007d8:	4770      	bxne	lr
 80007da:	f003 4600 	and.w	r6, r3, #2147483648	; 0x80000000
 80007de:	0052      	lsls	r2, r2, #1
 80007e0:	eb43 0303 	adc.w	r3, r3, r3
 80007e4:	f413 1f80 	tst.w	r3, #1048576	; 0x100000
 80007e8:	bf08      	it	eq
 80007ea:	3d01      	subeq	r5, #1
 80007ec:	d0f7      	beq.n	80007de <__aeabi_dmul+0x1c6>
 80007ee:	ea43 0306 	orr.w	r3, r3, r6
 80007f2:	4770      	bx	lr
 80007f4:	ea94 0f0c 	teq	r4, ip
 80007f8:	ea0c 5513 	and.w	r5, ip, r3, lsr #20
 80007fc:	bf18      	it	ne
 80007fe:	ea95 0f0c 	teqne	r5, ip
 8000802:	d00c      	beq.n	800081e <__aeabi_dmul+0x206>
 8000804:	ea50 0641 	orrs.w	r6, r0, r1, lsl #1
 8000808:	bf18      	it	ne
 800080a:	ea52 0643 	orrsne.w	r6, r2, r3, lsl #1
 800080e:	d1d1      	bne.n	80007b4 <__aeabi_dmul+0x19c>
 8000810:	ea81 0103 	eor.w	r1, r1, r3
 8000814:	f001 4100 	and.w	r1, r1, #2147483648	; 0x80000000
 8000818:	f04f 0000 	mov.w	r0, #0
 800081c:	bd70      	pop	{r4, r5, r6, pc}
 800081e:	ea50 0641 	orrs.w	r6, r0, r1, lsl #1
 8000822:	bf06      	itte	eq
 8000824:	4610      	moveq	r0, r2
 8000826:	4619      	moveq	r1, r3
 8000828:	ea52 0643 	orrsne.w	r6, r2, r3, lsl #1
 800082c:	d019      	beq.n	8000862 <__aeabi_dmul+0x24a>
 800082e:	ea94 0f0c 	teq	r4, ip
 8000832:	d102      	bne.n	800083a <__aeabi_dmul+0x222>
 8000834:	ea50 3601 	orrs.w	r6, r0, r1, lsl #12
 8000838:	d113      	bne.n	8000862 <__aeabi_dmul+0x24a>
 800083a:	ea95 0f0c 	teq	r5, ip
 800083e:	d105      	bne.n	800084c <__aeabi_dmul+0x234>
 8000840:	ea52 3603 	orrs.w	r6, r2, r3, lsl #12
 8000844:	bf1c      	itt	ne
 8000846:	4610      	movne	r0, r2
 8000848:	4619      	movne	r1, r3
 800084a:	d10a      	bne.n	8000862 <__aeabi_dmul+0x24a>
 800084c:	ea81 0103 	eor.w	r1, r1, r3
 8000850:	f001 4100 	and.w	r1, r1, #2147483648	; 0x80000000
 8000854:	f041 41fe 	orr.w	r1, r1, #2130706432	; 0x7f000000
 8000858:	f441 0170 	orr.w	r1, r1, #15728640	; 0xf00000
 800085c:	f04f 0000 	mov.w	r0, #0
 8000860:	bd70      	pop	{r4, r5, r6, pc}
 8000862:	f041 41fe 	orr.w	r1, r1, #2130706432	; 0x7f000000
 8000866:	f441 0178 	orr.w	r1, r1, #16252928	; 0xf80000
 800086a:	bd70      	pop	{r4, r5, r6, pc}

0800086c <__aeabi_ddiv>:
 800086c:	b570      	push	{r4, r5, r6, lr}
 800086e:	f04f 0cff 	mov.w	ip, #255	; 0xff
 8000872:	f44c 6ce0 	orr.w	ip, ip, #1792	; 0x700
 8000876:	ea1c 5411 	ands.w	r4, ip, r1, lsr #20
 800087a:	bf1d      	ittte	ne
 800087c:	ea1c 5513 	andsne.w	r5, ip, r3, lsr #20
 8000880:	ea94 0f0c 	teqne	r4, ip
 8000884:	ea95 0f0c 	teqne	r5, ip
 8000888:	f000 f8a7 	bleq	80009da <__aeabi_ddiv+0x16e>
 800088c:	eba4 0405 	sub.w	r4, r4, r5
 8000890:	ea81 0e03 	eor.w	lr, r1, r3
 8000894:	ea52 3503 	orrs.w	r5, r2, r3, lsl #12
 8000898:	ea4f 3101 	mov.w	r1, r1, lsl #12
 800089c:	f000 8088 	beq.w	80009b0 <__aeabi_ddiv+0x144>
 80008a0:	ea4f 3303 	mov.w	r3, r3, lsl #12
 80008a4:	f04f 5580 	mov.w	r5, #268435456	; 0x10000000
 80008a8:	ea45 1313 	orr.w	r3, r5, r3, lsr #4
 80008ac:	ea43 6312 	orr.w	r3, r3, r2, lsr #24
 80008b0:	ea4f 2202 	mov.w	r2, r2, lsl #8
 80008b4:	ea45 1511 	orr.w	r5, r5, r1, lsr #4
 80008b8:	ea45 6510 	orr.w	r5, r5, r0, lsr #24
 80008bc:	ea4f 2600 	mov.w	r6, r0, lsl #8
 80008c0:	f00e 4100 	and.w	r1, lr, #2147483648	; 0x80000000
 80008c4:	429d      	cmp	r5, r3
 80008c6:	bf08      	it	eq
 80008c8:	4296      	cmpeq	r6, r2
 80008ca:	f144 04fd 	adc.w	r4, r4, #253	; 0xfd
 80008ce:	f504 7440 	add.w	r4, r4, #768	; 0x300
 80008d2:	d202      	bcs.n	80008da <__aeabi_ddiv+0x6e>
 80008d4:	085b      	lsrs	r3, r3, #1
 80008d6:	ea4f 0232 	mov.w	r2, r2, rrx
 80008da:	1ab6      	subs	r6, r6, r2
 80008dc:	eb65 0503 	sbc.w	r5, r5, r3
 80008e0:	085b      	lsrs	r3, r3, #1
 80008e2:	ea4f 0232 	mov.w	r2, r2, rrx
 80008e6:	f44f 1080 	mov.w	r0, #1048576	; 0x100000
 80008ea:	f44f 2c00 	mov.w	ip, #524288	; 0x80000
 80008ee:	ebb6 0e02 	subs.w	lr, r6, r2
 80008f2:	eb75 0e03 	sbcs.w	lr, r5, r3
 80008f6:	bf22      	ittt	cs
 80008f8:	1ab6      	subcs	r6, r6, r2
 80008fa:	4675      	movcs	r5, lr
 80008fc:	ea40 000c 	orrcs.w	r0, r0, ip
 8000900:	085b      	lsrs	r3, r3, #1
 8000902:	ea4f 0232 	mov.w	r2, r2, rrx
 8000906:	ebb6 0e02 	subs.w	lr, r6, r2
 800090a:	eb75 0e03 	sbcs.w	lr, r5, r3
 800090e:	bf22      	ittt	cs
 8000910:	1ab6      	subcs	r6, r6, r2
 8000912:	4675      	movcs	r5, lr
 8000914:	ea40 005c 	orrcs.w	r0, r0, ip, lsr #1
 8000918:	085b      	lsrs	r3, r3, #1
 800091a:	ea4f 0232 	mov.w	r2, r2, rrx
 800091e:	ebb6 0e02 	subs.w	lr, r6, r2
 8000922:	eb75 0e03 	sbcs.w	lr, r5, r3
 8000926:	bf22      	ittt	cs
 8000928:	1ab6      	subcs	r6, r6, r2
 800092a:	4675      	movcs	r5, lr
 800092c:	ea40 009c 	orrcs.w	r0, r0, ip, lsr #2
 8000930:	085b      	lsrs	r3, r3, #1
 8000932:	ea4f 0232 	mov.w	r2, r2, rrx
 8000936:	ebb6 0e02 	subs.w	lr, r6, r2
 800093a:	eb75 0e03 	sbcs.w	lr, r5, r3
 800093e:	bf22      	ittt	cs
 8000940:	1ab6      	subcs	r6, r6, r2
 8000942:	4675      	movcs	r5, lr
 8000944:	ea40 00dc 	orrcs.w	r0, r0, ip, lsr #3
 8000948:	ea55 0e06 	orrs.w	lr, r5, r6
 800094c:	d018      	beq.n	8000980 <__aeabi_ddiv+0x114>
 800094e:	ea4f 1505 	mov.w	r5, r5, lsl #4
 8000952:	ea45 7516 	orr.w	r5, r5, r6, lsr #28
 8000956:	ea4f 1606 	mov.w	r6, r6, lsl #4
 800095a:	ea4f 03c3 	mov.w	r3, r3, lsl #3
 800095e:	ea43 7352 	orr.w	r3, r3, r2, lsr #29
 8000962:	ea4f 02c2 	mov.w	r2, r2, lsl #3
 8000966:	ea5f 1c1c 	movs.w	ip, ip, lsr #4
 800096a:	d1c0      	bne.n	80008ee <__aeabi_ddiv+0x82>
 800096c:	f411 1f80 	tst.w	r1, #1048576	; 0x100000
 8000970:	d10b      	bne.n	800098a <__aeabi_ddiv+0x11e>
 8000972:	ea41 0100 	orr.w	r1, r1, r0
 8000976:	f04f 0000 	mov.w	r0, #0
 800097a:	f04f 4c00 	mov.w	ip, #2147483648	; 0x80000000
 800097e:	e7b6      	b.n	80008ee <__aeabi_ddiv+0x82>
 8000980:	f411 1f80 	tst.w	r1, #1048576	; 0x100000
 8000984:	bf04      	itt	eq
 8000986:	4301      	orreq	r1, r0
 8000988:	2000      	moveq	r0, #0
 800098a:	f1b4 0cfd 	subs.w	ip, r4, #253	; 0xfd
 800098e:	bf88      	it	hi
 8000990:	f5bc 6fe0 	cmphi.w	ip, #1792	; 0x700
 8000994:	f63f aeaf 	bhi.w	80006f6 <__aeabi_dmul+0xde>
 8000998:	ebb5 0c03 	subs.w	ip, r5, r3
 800099c:	bf04      	itt	eq
 800099e:	ebb6 0c02 	subseq.w	ip, r6, r2
 80009a2:	ea5f 0c50 	movseq.w	ip, r0, lsr #1
 80009a6:	f150 0000 	adcs.w	r0, r0, #0
 80009aa:	eb41 5104 	adc.w	r1, r1, r4, lsl #20
 80009ae:	bd70      	pop	{r4, r5, r6, pc}
 80009b0:	f00e 4e00 	and.w	lr, lr, #2147483648	; 0x80000000
 80009b4:	ea4e 3111 	orr.w	r1, lr, r1, lsr #12
 80009b8:	eb14 045c 	adds.w	r4, r4, ip, lsr #1
 80009bc:	bfc2      	ittt	gt
 80009be:	ebd4 050c 	rsbsgt	r5, r4, ip
 80009c2:	ea41 5104 	orrgt.w	r1, r1, r4, lsl #20
 80009c6:	bd70      	popgt	{r4, r5, r6, pc}
 80009c8:	f441 1180 	orr.w	r1, r1, #1048576	; 0x100000
 80009cc:	f04f 0e00 	mov.w	lr, #0
 80009d0:	3c01      	subs	r4, #1
 80009d2:	e690      	b.n	80006f6 <__aeabi_dmul+0xde>
 80009d4:	ea45 0e06 	orr.w	lr, r5, r6
 80009d8:	e68d      	b.n	80006f6 <__aeabi_dmul+0xde>
 80009da:	ea0c 5513 	and.w	r5, ip, r3, lsr #20
 80009de:	ea94 0f0c 	teq	r4, ip
 80009e2:	bf08      	it	eq
 80009e4:	ea95 0f0c 	teqeq	r5, ip
 80009e8:	f43f af3b 	beq.w	8000862 <__aeabi_dmul+0x24a>
 80009ec:	ea94 0f0c 	teq	r4, ip
 80009f0:	d10a      	bne.n	8000a08 <__aeabi_ddiv+0x19c>
 80009f2:	ea50 3401 	orrs.w	r4, r0, r1, lsl #12
 80009f6:	f47f af34 	bne.w	8000862 <__aeabi_dmul+0x24a>
 80009fa:	ea95 0f0c 	teq	r5, ip
 80009fe:	f47f af25 	bne.w	800084c <__aeabi_dmul+0x234>
 8000a02:	4610      	mov	r0, r2
 8000a04:	4619      	mov	r1, r3
 8000a06:	e72c      	b.n	8000862 <__aeabi_dmul+0x24a>
 8000a08:	ea95 0f0c 	teq	r5, ip
 8000a0c:	d106      	bne.n	8000a1c <__aeabi_ddiv+0x1b0>
 8000a0e:	ea52 3503 	orrs.w	r5, r2, r3, lsl #12
 8000a12:	f43f aefd 	beq.w	8000810 <__aeabi_dmul+0x1f8>
 8000a16:	4610      	mov	r0, r2
 8000a18:	4619      	mov	r1, r3
 8000a1a:	e722      	b.n	8000862 <__aeabi_dmul+0x24a>
 8000a1c:	ea50 0641 	orrs.w	r6, r0, r1, lsl #1
 8000a20:	bf18      	it	ne
 8000a22:	ea52 0643 	orrsne.w	r6, r2, r3, lsl #1
 8000a26:	f47f aec5 	bne.w	80007b4 <__aeabi_dmul+0x19c>
 8000a2a:	ea50 0441 	orrs.w	r4, r0, r1, lsl #1
 8000a2e:	f47f af0d 	bne.w	800084c <__aeabi_dmul+0x234>
 8000a32:	ea52 0543 	orrs.w	r5, r2, r3, lsl #1
 8000a36:	f47f aeeb 	bne.w	8000810 <__aeabi_dmul+0x1f8>
 8000a3a:	e712      	b.n	8000862 <__aeabi_dmul+0x24a>

08000a3c <__gedf2>:
 8000a3c:	f04f 3cff 	mov.w	ip, #4294967295
 8000a40:	e006      	b.n	8000a50 <__cmpdf2+0x4>
 8000a42:	bf00      	nop

08000a44 <__ledf2>:
 8000a44:	f04f 0c01 	mov.w	ip, #1
 8000a48:	e002      	b.n	8000a50 <__cmpdf2+0x4>
 8000a4a:	bf00      	nop

08000a4c <__cmpdf2>:
 8000a4c:	f04f 0c01 	mov.w	ip, #1
 8000a50:	f84d cd04 	str.w	ip, [sp, #-4]!
 8000a54:	ea4f 0c41 	mov.w	ip, r1, lsl #1
 8000a58:	ea7f 5c6c 	mvns.w	ip, ip, asr #21
 8000a5c:	ea4f 0c43 	mov.w	ip, r3, lsl #1
 8000a60:	bf18      	it	ne
 8000a62:	ea7f 5c6c 	mvnsne.w	ip, ip, asr #21
 8000a66:	d01b      	beq.n	8000aa0 <__cmpdf2+0x54>
 8000a68:	b001      	add	sp, #4
 8000a6a:	ea50 0c41 	orrs.w	ip, r0, r1, lsl #1
 8000a6e:	bf0c      	ite	eq
 8000a70:	ea52 0c43 	orrseq.w	ip, r2, r3, lsl #1
 8000a74:	ea91 0f03 	teqne	r1, r3
 8000a78:	bf02      	ittt	eq
 8000a7a:	ea90 0f02 	teqeq	r0, r2
 8000a7e:	2000      	moveq	r0, #0
 8000a80:	4770      	bxeq	lr
 8000a82:	f110 0f00 	cmn.w	r0, #0
 8000a86:	ea91 0f03 	teq	r1, r3
 8000a8a:	bf58      	it	pl
 8000a8c:	4299      	cmppl	r1, r3
 8000a8e:	bf08      	it	eq
 8000a90:	4290      	cmpeq	r0, r2
 8000a92:	bf2c      	ite	cs
 8000a94:	17d8      	asrcs	r0, r3, #31
 8000a96:	ea6f 70e3 	mvncc.w	r0, r3, asr #31
 8000a9a:	f040 0001 	orr.w	r0, r0, #1
 8000a9e:	4770      	bx	lr
 8000aa0:	ea4f 0c41 	mov.w	ip, r1, lsl #1
 8000aa4:	ea7f 5c6c 	mvns.w	ip, ip, asr #21
 8000aa8:	d102      	bne.n	8000ab0 <__cmpdf2+0x64>
 8000aaa:	ea50 3c01 	orrs.w	ip, r0, r1, lsl #12
 8000aae:	d107      	bne.n	8000ac0 <__cmpdf2+0x74>
 8000ab0:	ea4f 0c43 	mov.w	ip, r3, lsl #1
 8000ab4:	ea7f 5c6c 	mvns.w	ip, ip, asr #21
 8000ab8:	d1d6      	bne.n	8000a68 <__cmpdf2+0x1c>
 8000aba:	ea52 3c03 	orrs.w	ip, r2, r3, lsl #12
 8000abe:	d0d3      	beq.n	8000a68 <__cmpdf2+0x1c>
 8000ac0:	f85d 0b04 	ldr.w	r0, [sp], #4
 8000ac4:	4770      	bx	lr
 8000ac6:	bf00      	nop

08000ac8 <__aeabi_cdrcmple>:
 8000ac8:	4684      	mov	ip, r0
 8000aca:	4610      	mov	r0, r2
 8000acc:	4662      	mov	r2, ip
 8000ace:	468c      	mov	ip, r1
 8000ad0:	4619      	mov	r1, r3
 8000ad2:	4663      	mov	r3, ip
 8000ad4:	e000      	b.n	8000ad8 <__aeabi_cdcmpeq>
 8000ad6:	bf00      	nop

08000ad8 <__aeabi_cdcmpeq>:
 8000ad8:	b501      	push	{r0, lr}
 8000ada:	f7ff ffb7 	bl	8000a4c <__cmpdf2>
 8000ade:	2800      	cmp	r0, #0
 8000ae0:	bf48      	it	mi
 8000ae2:	f110 0f00 	cmnmi.w	r0, #0
 8000ae6:	bd01      	pop	{r0, pc}

08000ae8 <__aeabi_dcmpeq>:
 8000ae8:	f84d ed08 	str.w	lr, [sp, #-8]!
 8000aec:	f7ff fff4 	bl	8000ad8 <__aeabi_cdcmpeq>
 8000af0:	bf0c      	ite	eq
 8000af2:	2001      	moveq	r0, #1
 8000af4:	2000      	movne	r0, #0
 8000af6:	f85d fb08 	ldr.w	pc, [sp], #8
 8000afa:	bf00      	nop

08000afc <__aeabi_dcmplt>:
 8000afc:	f84d ed08 	str.w	lr, [sp, #-8]!
 8000b00:	f7ff ffea 	bl	8000ad8 <__aeabi_cdcmpeq>
 8000b04:	bf34      	ite	cc
 8000b06:	2001      	movcc	r0, #1
 8000b08:	2000      	movcs	r0, #0
 8000b0a:	f85d fb08 	ldr.w	pc, [sp], #8
 8000b0e:	bf00      	nop

08000b10 <__aeabi_dcmple>:
 8000b10:	f84d ed08 	str.w	lr, [sp, #-8]!
 8000b14:	f7ff ffe0 	bl	8000ad8 <__aeabi_cdcmpeq>
 8000b18:	bf94      	ite	ls
 8000b1a:	2001      	movls	r0, #1
 8000b1c:	2000      	movhi	r0, #0
 8000b1e:	f85d fb08 	ldr.w	pc, [sp], #8
 8000b22:	bf00      	nop

08000b24 <__aeabi_dcmpge>:
 8000b24:	f84d ed08 	str.w	lr, [sp, #-8]!
 8000b28:	f7ff ffce 	bl	8000ac8 <__aeabi_cdrcmple>
 8000b2c:	bf94      	ite	ls
 8000b2e:	2001      	movls	r0, #1
 8000b30:	2000      	movhi	r0, #0
 8000b32:	f85d fb08 	ldr.w	pc, [sp], #8
 8000b36:	bf00      	nop

08000b38 <__aeabi_dcmpgt>:
 8000b38:	f84d ed08 	str.w	lr, [sp, #-8]!
 8000b3c:	f7ff ffc4 	bl	8000ac8 <__aeabi_cdrcmple>
 8000b40:	bf34      	ite	cc
 8000b42:	2001      	movcc	r0, #1
 8000b44:	2000      	movcs	r0, #0
 8000b46:	f85d fb08 	ldr.w	pc, [sp], #8
 8000b4a:	bf00      	nop

08000b4c <__aeabi_dcmpun>:
 8000b4c:	ea4f 0c41 	mov.w	ip, r1, lsl #1
 8000b50:	ea7f 5c6c 	mvns.w	ip, ip, asr #21
 8000b54:	d102      	bne.n	8000b5c <__aeabi_dcmpun+0x10>
 8000b56:	ea50 3c01 	orrs.w	ip, r0, r1, lsl #12
 8000b5a:	d10a      	bne.n	8000b72 <__aeabi_dcmpun+0x26>
 8000b5c:	ea4f 0c43 	mov.w	ip, r3, lsl #1
 8000b60:	ea7f 5c6c 	mvns.w	ip, ip, asr #21
 8000b64:	d102      	bne.n	8000b6c <__aeabi_dcmpun+0x20>
 8000b66:	ea52 3c03 	orrs.w	ip, r2, r3, lsl #12
 8000b6a:	d102      	bne.n	8000b72 <__aeabi_dcmpun+0x26>
 8000b6c:	f04f 0000 	mov.w	r0, #0
 8000b70:	4770      	bx	lr
 8000b72:	f04f 0001 	mov.w	r0, #1
 8000b76:	4770      	bx	lr

08000b78 <__aeabi_d2iz>:
 8000b78:	ea4f 0241 	mov.w	r2, r1, lsl #1
 8000b7c:	f512 1200 	adds.w	r2, r2, #2097152	; 0x200000
 8000b80:	d215      	bcs.n	8000bae <__aeabi_d2iz+0x36>
 8000b82:	d511      	bpl.n	8000ba8 <__aeabi_d2iz+0x30>
 8000b84:	f46f 7378 	mvn.w	r3, #992	; 0x3e0
 8000b88:	ebb3 5262 	subs.w	r2, r3, r2, asr #21
 8000b8c:	d912      	bls.n	8000bb4 <__aeabi_d2iz+0x3c>
 8000b8e:	ea4f 23c1 	mov.w	r3, r1, lsl #11
 8000b92:	f043 4300 	orr.w	r3, r3, #2147483648	; 0x80000000
 8000b96:	ea43 5350 	orr.w	r3, r3, r0, lsr #21
 8000b9a:	f011 4f00 	tst.w	r1, #2147483648	; 0x80000000
 8000b9e:	fa23 f002 	lsr.w	r0, r3, r2
 8000ba2:	bf18      	it	ne
 8000ba4:	4240      	negne	r0, r0
 8000ba6:	4770      	bx	lr
 8000ba8:	f04f 0000 	mov.w	r0, #0
 8000bac:	4770      	bx	lr
 8000bae:	ea50 3001 	orrs.w	r0, r0, r1, lsl #12
 8000bb2:	d105      	bne.n	8000bc0 <__aeabi_d2iz+0x48>
 8000bb4:	f011 4000 	ands.w	r0, r1, #2147483648	; 0x80000000
 8000bb8:	bf08      	it	eq
 8000bba:	f06f 4000 	mvneq.w	r0, #2147483648	; 0x80000000
 8000bbe:	4770      	bx	lr
 8000bc0:	f04f 0000 	mov.w	r0, #0
 8000bc4:	4770      	bx	lr
 8000bc6:	bf00      	nop

08000bc8 <__aeabi_uldivmod>:
 8000bc8:	b953      	cbnz	r3, 8000be0 <__aeabi_uldivmod+0x18>
 8000bca:	b94a      	cbnz	r2, 8000be0 <__aeabi_uldivmod+0x18>
 8000bcc:	2900      	cmp	r1, #0
 8000bce:	bf08      	it	eq
 8000bd0:	2800      	cmpeq	r0, #0
 8000bd2:	bf1c      	itt	ne
 8000bd4:	f04f 31ff 	movne.w	r1, #4294967295
 8000bd8:	f04f 30ff 	movne.w	r0, #4294967295
 8000bdc:	f000 b974 	b.w	8000ec8 <__aeabi_idiv0>
 8000be0:	f1ad 0c08 	sub.w	ip, sp, #8
 8000be4:	e96d ce04 	strd	ip, lr, [sp, #-16]!
 8000be8:	f000 f806 	bl	8000bf8 <__udivmoddi4>
 8000bec:	f8dd e004 	ldr.w	lr, [sp, #4]
 8000bf0:	e9dd 2302 	ldrd	r2, r3, [sp, #8]
 8000bf4:	b004      	add	sp, #16
 8000bf6:	4770      	bx	lr

08000bf8 <__udivmoddi4>:
 8000bf8:	e92d 47f0 	stmdb	sp!, {r4, r5, r6, r7, r8, r9, sl, lr}
 8000bfc:	9d08      	ldr	r5, [sp, #32]
 8000bfe:	4604      	mov	r4, r0
 8000c00:	468e      	mov	lr, r1
 8000c02:	2b00      	cmp	r3, #0
 8000c04:	d14d      	bne.n	8000ca2 <__udivmoddi4+0xaa>
 8000c06:	428a      	cmp	r2, r1
 8000c08:	4694      	mov	ip, r2
 8000c0a:	d969      	bls.n	8000ce0 <__udivmoddi4+0xe8>
 8000c0c:	fab2 f282 	clz	r2, r2
 8000c10:	b152      	cbz	r2, 8000c28 <__udivmoddi4+0x30>
 8000c12:	fa01 f302 	lsl.w	r3, r1, r2
 8000c16:	f1c2 0120 	rsb	r1, r2, #32
 8000c1a:	fa20 f101 	lsr.w	r1, r0, r1
 8000c1e:	fa0c fc02 	lsl.w	ip, ip, r2
 8000c22:	ea41 0e03 	orr.w	lr, r1, r3
 8000c26:	4094      	lsls	r4, r2
 8000c28:	ea4f 481c 	mov.w	r8, ip, lsr #16
 8000c2c:	0c21      	lsrs	r1, r4, #16
 8000c2e:	fbbe f6f8 	udiv	r6, lr, r8
 8000c32:	fa1f f78c 	uxth.w	r7, ip
 8000c36:	fb08 e316 	mls	r3, r8, r6, lr
 8000c3a:	ea41 4303 	orr.w	r3, r1, r3, lsl #16
 8000c3e:	fb06 f107 	mul.w	r1, r6, r7
 8000c42:	4299      	cmp	r1, r3
 8000c44:	d90a      	bls.n	8000c5c <__udivmoddi4+0x64>
 8000c46:	eb1c 0303 	adds.w	r3, ip, r3
 8000c4a:	f106 30ff 	add.w	r0, r6, #4294967295
 8000c4e:	f080 811f 	bcs.w	8000e90 <__udivmoddi4+0x298>
 8000c52:	4299      	cmp	r1, r3
 8000c54:	f240 811c 	bls.w	8000e90 <__udivmoddi4+0x298>
 8000c58:	3e02      	subs	r6, #2
 8000c5a:	4463      	add	r3, ip
 8000c5c:	1a5b      	subs	r3, r3, r1
 8000c5e:	b2a4      	uxth	r4, r4
 8000c60:	fbb3 f0f8 	udiv	r0, r3, r8
 8000c64:	fb08 3310 	mls	r3, r8, r0, r3
 8000c68:	ea44 4403 	orr.w	r4, r4, r3, lsl #16
 8000c6c:	fb00 f707 	mul.w	r7, r0, r7
 8000c70:	42a7      	cmp	r7, r4
 8000c72:	d90a      	bls.n	8000c8a <__udivmoddi4+0x92>
 8000c74:	eb1c 0404 	adds.w	r4, ip, r4
 8000c78:	f100 33ff 	add.w	r3, r0, #4294967295
 8000c7c:	f080 810a 	bcs.w	8000e94 <__udivmoddi4+0x29c>
 8000c80:	42a7      	cmp	r7, r4
 8000c82:	f240 8107 	bls.w	8000e94 <__udivmoddi4+0x29c>
 8000c86:	4464      	add	r4, ip
 8000c88:	3802      	subs	r0, #2
 8000c8a:	ea40 4006 	orr.w	r0, r0, r6, lsl #16
 8000c8e:	1be4      	subs	r4, r4, r7
 8000c90:	2600      	movs	r6, #0
 8000c92:	b11d      	cbz	r5, 8000c9c <__udivmoddi4+0xa4>
 8000c94:	40d4      	lsrs	r4, r2
 8000c96:	2300      	movs	r3, #0
 8000c98:	e9c5 4300 	strd	r4, r3, [r5]
 8000c9c:	4631      	mov	r1, r6
 8000c9e:	e8bd 87f0 	ldmia.w	sp!, {r4, r5, r6, r7, r8, r9, sl, pc}
 8000ca2:	428b      	cmp	r3, r1
 8000ca4:	d909      	bls.n	8000cba <__udivmoddi4+0xc2>
 8000ca6:	2d00      	cmp	r5, #0
 8000ca8:	f000 80ef 	beq.w	8000e8a <__udivmoddi4+0x292>
 8000cac:	2600      	movs	r6, #0
 8000cae:	e9c5 0100 	strd	r0, r1, [r5]
 8000cb2:	4630      	mov	r0, r6
 8000cb4:	4631      	mov	r1, r6
 8000cb6:	e8bd 87f0 	ldmia.w	sp!, {r4, r5, r6, r7, r8, r9, sl, pc}
 8000cba:	fab3 f683 	clz	r6, r3
 8000cbe:	2e00      	cmp	r6, #0
 8000cc0:	d14a      	bne.n	8000d58 <__udivmoddi4+0x160>
 8000cc2:	428b      	cmp	r3, r1
 8000cc4:	d302      	bcc.n	8000ccc <__udivmoddi4+0xd4>
 8000cc6:	4282      	cmp	r2, r0
 8000cc8:	f200 80f9 	bhi.w	8000ebe <__udivmoddi4+0x2c6>
 8000ccc:	1a84      	subs	r4, r0, r2
 8000cce:	eb61 0303 	sbc.w	r3, r1, r3
 8000cd2:	2001      	movs	r0, #1
 8000cd4:	469e      	mov	lr, r3
 8000cd6:	2d00      	cmp	r5, #0
 8000cd8:	d0e0      	beq.n	8000c9c <__udivmoddi4+0xa4>
 8000cda:	e9c5 4e00 	strd	r4, lr, [r5]
 8000cde:	e7dd      	b.n	8000c9c <__udivmoddi4+0xa4>
 8000ce0:	b902      	cbnz	r2, 8000ce4 <__udivmoddi4+0xec>
 8000ce2:	deff      	udf	#255	; 0xff
 8000ce4:	fab2 f282 	clz	r2, r2
 8000ce8:	2a00      	cmp	r2, #0
 8000cea:	f040 8092 	bne.w	8000e12 <__udivmoddi4+0x21a>
 8000cee:	eba1 010c 	sub.w	r1, r1, ip
 8000cf2:	ea4f 471c 	mov.w	r7, ip, lsr #16
 8000cf6:	fa1f fe8c 	uxth.w	lr, ip
 8000cfa:	2601      	movs	r6, #1
 8000cfc:	0c20      	lsrs	r0, r4, #16
 8000cfe:	fbb1 f3f7 	udiv	r3, r1, r7
 8000d02:	fb07 1113 	mls	r1, r7, r3, r1
 8000d06:	ea40 4101 	orr.w	r1, r0, r1, lsl #16
 8000d0a:	fb0e f003 	mul.w	r0, lr, r3
 8000d0e:	4288      	cmp	r0, r1
 8000d10:	d908      	bls.n	8000d24 <__udivmoddi4+0x12c>
 8000d12:	eb1c 0101 	adds.w	r1, ip, r1
 8000d16:	f103 38ff 	add.w	r8, r3, #4294967295
 8000d1a:	d202      	bcs.n	8000d22 <__udivmoddi4+0x12a>
 8000d1c:	4288      	cmp	r0, r1
 8000d1e:	f200 80cb 	bhi.w	8000eb8 <__udivmoddi4+0x2c0>
 8000d22:	4643      	mov	r3, r8
 8000d24:	1a09      	subs	r1, r1, r0
 8000d26:	b2a4      	uxth	r4, r4
 8000d28:	fbb1 f0f7 	udiv	r0, r1, r7
 8000d2c:	fb07 1110 	mls	r1, r7, r0, r1
 8000d30:	ea44 4401 	orr.w	r4, r4, r1, lsl #16
 8000d34:	fb0e fe00 	mul.w	lr, lr, r0
 8000d38:	45a6      	cmp	lr, r4
 8000d3a:	d908      	bls.n	8000d4e <__udivmoddi4+0x156>
 8000d3c:	eb1c 0404 	adds.w	r4, ip, r4
 8000d40:	f100 31ff 	add.w	r1, r0, #4294967295
 8000d44:	d202      	bcs.n	8000d4c <__udivmoddi4+0x154>
 8000d46:	45a6      	cmp	lr, r4
 8000d48:	f200 80bb 	bhi.w	8000ec2 <__udivmoddi4+0x2ca>
 8000d4c:	4608      	mov	r0, r1
 8000d4e:	eba4 040e 	sub.w	r4, r4, lr
 8000d52:	ea40 4003 	orr.w	r0, r0, r3, lsl #16
 8000d56:	e79c      	b.n	8000c92 <__udivmoddi4+0x9a>
 8000d58:	f1c6 0720 	rsb	r7, r6, #32
 8000d5c:	40b3      	lsls	r3, r6
 8000d5e:	fa22 fc07 	lsr.w	ip, r2, r7
 8000d62:	ea4c 0c03 	orr.w	ip, ip, r3
 8000d66:	fa20 f407 	lsr.w	r4, r0, r7
 8000d6a:	fa01 f306 	lsl.w	r3, r1, r6
 8000d6e:	431c      	orrs	r4, r3
 8000d70:	40f9      	lsrs	r1, r7
 8000d72:	ea4f 491c 	mov.w	r9, ip, lsr #16
 8000d76:	fa00 f306 	lsl.w	r3, r0, r6
 8000d7a:	fbb1 f8f9 	udiv	r8, r1, r9
 8000d7e:	0c20      	lsrs	r0, r4, #16
 8000d80:	fa1f fe8c 	uxth.w	lr, ip
 8000d84:	fb09 1118 	mls	r1, r9, r8, r1
 8000d88:	ea40 4101 	orr.w	r1, r0, r1, lsl #16
 8000d8c:	fb08 f00e 	mul.w	r0, r8, lr
 8000d90:	4288      	cmp	r0, r1
 8000d92:	fa02 f206 	lsl.w	r2, r2, r6
 8000d96:	d90b      	bls.n	8000db0 <__udivmoddi4+0x1b8>
 8000d98:	eb1c 0101 	adds.w	r1, ip, r1
 8000d9c:	f108 3aff 	add.w	sl, r8, #4294967295
 8000da0:	f080 8088 	bcs.w	8000eb4 <__udivmoddi4+0x2bc>
 8000da4:	4288      	cmp	r0, r1
 8000da6:	f240 8085 	bls.w	8000eb4 <__udivmoddi4+0x2bc>
 8000daa:	f1a8 0802 	sub.w	r8, r8, #2
 8000dae:	4461      	add	r1, ip
 8000db0:	1a09      	subs	r1, r1, r0
 8000db2:	b2a4      	uxth	r4, r4
 8000db4:	fbb1 f0f9 	udiv	r0, r1, r9
 8000db8:	fb09 1110 	mls	r1, r9, r0, r1
 8000dbc:	ea44 4101 	orr.w	r1, r4, r1, lsl #16
 8000dc0:	fb00 fe0e 	mul.w	lr, r0, lr
 8000dc4:	458e      	cmp	lr, r1
 8000dc6:	d908      	bls.n	8000dda <__udivmoddi4+0x1e2>
 8000dc8:	eb1c 0101 	adds.w	r1, ip, r1
 8000dcc:	f100 34ff 	add.w	r4, r0, #4294967295
 8000dd0:	d26c      	bcs.n	8000eac <__udivmoddi4+0x2b4>
 8000dd2:	458e      	cmp	lr, r1
 8000dd4:	d96a      	bls.n	8000eac <__udivmoddi4+0x2b4>
 8000dd6:	3802      	subs	r0, #2
 8000dd8:	4461      	add	r1, ip
 8000dda:	ea40 4008 	orr.w	r0, r0, r8, lsl #16
 8000dde:	fba0 9402 	umull	r9, r4, r0, r2
 8000de2:	eba1 010e 	sub.w	r1, r1, lr
 8000de6:	42a1      	cmp	r1, r4
 8000de8:	46c8      	mov	r8, r9
 8000dea:	46a6      	mov	lr, r4
 8000dec:	d356      	bcc.n	8000e9c <__udivmoddi4+0x2a4>
 8000dee:	d053      	beq.n	8000e98 <__udivmoddi4+0x2a0>
 8000df0:	b15d      	cbz	r5, 8000e0a <__udivmoddi4+0x212>
 8000df2:	ebb3 0208 	subs.w	r2, r3, r8
 8000df6:	eb61 010e 	sbc.w	r1, r1, lr
 8000dfa:	fa01 f707 	lsl.w	r7, r1, r7
 8000dfe:	fa22 f306 	lsr.w	r3, r2, r6
 8000e02:	40f1      	lsrs	r1, r6
 8000e04:	431f      	orrs	r7, r3
 8000e06:	e9c5 7100 	strd	r7, r1, [r5]
 8000e0a:	2600      	movs	r6, #0
 8000e0c:	4631      	mov	r1, r6
 8000e0e:	e8bd 87f0 	ldmia.w	sp!, {r4, r5, r6, r7, r8, r9, sl, pc}
 8000e12:	f1c2 0320 	rsb	r3, r2, #32
 8000e16:	40d8      	lsrs	r0, r3
 8000e18:	fa0c fc02 	lsl.w	ip, ip, r2
 8000e1c:	fa21 f303 	lsr.w	r3, r1, r3
 8000e20:	4091      	lsls	r1, r2
 8000e22:	4301      	orrs	r1, r0
 8000e24:	ea4f 471c 	mov.w	r7, ip, lsr #16
 8000e28:	fa1f fe8c 	uxth.w	lr, ip
 8000e2c:	fbb3 f0f7 	udiv	r0, r3, r7
 8000e30:	fb07 3610 	mls	r6, r7, r0, r3
 8000e34:	0c0b      	lsrs	r3, r1, #16
 8000e36:	ea43 4306 	orr.w	r3, r3, r6, lsl #16
 8000e3a:	fb00 f60e 	mul.w	r6, r0, lr
 8000e3e:	429e      	cmp	r6, r3
 8000e40:	fa04 f402 	lsl.w	r4, r4, r2
 8000e44:	d908      	bls.n	8000e58 <__udivmoddi4+0x260>
 8000e46:	eb1c 0303 	adds.w	r3, ip, r3
 8000e4a:	f100 38ff 	add.w	r8, r0, #4294967295
 8000e4e:	d22f      	bcs.n	8000eb0 <__udivmoddi4+0x2b8>
 8000e50:	429e      	cmp	r6, r3
 8000e52:	d92d      	bls.n	8000eb0 <__udivmoddi4+0x2b8>
 8000e54:	3802      	subs	r0, #2
 8000e56:	4463      	add	r3, ip
 8000e58:	1b9b      	subs	r3, r3, r6
 8000e5a:	b289      	uxth	r1, r1
 8000e5c:	fbb3 f6f7 	udiv	r6, r3, r7
 8000e60:	fb07 3316 	mls	r3, r7, r6, r3
 8000e64:	ea41 4103 	orr.w	r1, r1, r3, lsl #16
 8000e68:	fb06 f30e 	mul.w	r3, r6, lr
 8000e6c:	428b      	cmp	r3, r1
 8000e6e:	d908      	bls.n	8000e82 <__udivmoddi4+0x28a>
 8000e70:	eb1c 0101 	adds.w	r1, ip, r1
 8000e74:	f106 38ff 	add.w	r8, r6, #4294967295
 8000e78:	d216      	bcs.n	8000ea8 <__udivmoddi4+0x2b0>
 8000e7a:	428b      	cmp	r3, r1
 8000e7c:	d914      	bls.n	8000ea8 <__udivmoddi4+0x2b0>
 8000e7e:	3e02      	subs	r6, #2
 8000e80:	4461      	add	r1, ip
 8000e82:	1ac9      	subs	r1, r1, r3
 8000e84:	ea46 4600 	orr.w	r6, r6, r0, lsl #16
 8000e88:	e738      	b.n	8000cfc <__udivmoddi4+0x104>
 8000e8a:	462e      	mov	r6, r5
 8000e8c:	4628      	mov	r0, r5
 8000e8e:	e705      	b.n	8000c9c <__udivmoddi4+0xa4>
 8000e90:	4606      	mov	r6, r0
 8000e92:	e6e3      	b.n	8000c5c <__udivmoddi4+0x64>
 8000e94:	4618      	mov	r0, r3
 8000e96:	e6f8      	b.n	8000c8a <__udivmoddi4+0x92>
 8000e98:	454b      	cmp	r3, r9
 8000e9a:	d2a9      	bcs.n	8000df0 <__udivmoddi4+0x1f8>
 8000e9c:	ebb9 0802 	subs.w	r8, r9, r2
 8000ea0:	eb64 0e0c 	sbc.w	lr, r4, ip
 8000ea4:	3801      	subs	r0, #1
 8000ea6:	e7a3      	b.n	8000df0 <__udivmoddi4+0x1f8>
 8000ea8:	4646      	mov	r6, r8
 8000eaa:	e7ea      	b.n	8000e82 <__udivmoddi4+0x28a>
 8000eac:	4620      	mov	r0, r4
 8000eae:	e794      	b.n	8000dda <__udivmoddi4+0x1e2>
 8000eb0:	4640      	mov	r0, r8
 8000eb2:	e7d1      	b.n	8000e58 <__udivmoddi4+0x260>
 8000eb4:	46d0      	mov	r8, sl
 8000eb6:	e77b      	b.n	8000db0 <__udivmoddi4+0x1b8>
 8000eb8:	3b02      	subs	r3, #2
 8000eba:	4461      	add	r1, ip
 8000ebc:	e732      	b.n	8000d24 <__udivmoddi4+0x12c>
 8000ebe:	4630      	mov	r0, r6
 8000ec0:	e709      	b.n	8000cd6 <__udivmoddi4+0xde>
 8000ec2:	4464      	add	r4, ip
 8000ec4:	3802      	subs	r0, #2
 8000ec6:	e742      	b.n	8000d4e <__udivmoddi4+0x156>

08000ec8 <__aeabi_idiv0>:
 8000ec8:	4770      	bx	lr
 8000eca:	bf00      	nop

08000ecc <gcd>:
 8000ecc:	b480      	push	{r7}
 8000ece:	b087      	sub	sp, #28
 8000ed0:	af00      	add	r7, sp, #0
 8000ed2:	6078      	str	r0, [r7, #4]
 8000ed4:	6039      	str	r1, [r7, #0]
 8000ed6:	687a      	ldr	r2, [r7, #4]
 8000ed8:	683b      	ldr	r3, [r7, #0]
 8000eda:	4293      	cmp	r3, r2
 8000edc:	bfb8      	it	lt
 8000ede:	4613      	movlt	r3, r2
 8000ee0:	617b      	str	r3, [r7, #20]
 8000ee2:	683a      	ldr	r2, [r7, #0]
 8000ee4:	687b      	ldr	r3, [r7, #4]
 8000ee6:	4293      	cmp	r3, r2
 8000ee8:	bfa8      	it	ge
 8000eea:	4613      	movge	r3, r2
 8000eec:	613b      	str	r3, [r7, #16]
 8000eee:	697b      	ldr	r3, [r7, #20]
 8000ef0:	693a      	ldr	r2, [r7, #16]
 8000ef2:	fb93 f2f2 	sdiv	r2, r3, r2
 8000ef6:	6939      	ldr	r1, [r7, #16]
 8000ef8:	fb01 f202 	mul.w	r2, r1, r2
 8000efc:	1a9b      	subs	r3, r3, r2
 8000efe:	60fb      	str	r3, [r7, #12]
 8000f00:	68fb      	ldr	r3, [r7, #12]
 8000f02:	2b00      	cmp	r3, #0
 8000f04:	d004      	beq.n	8000f10 <gcd+0x44>
 8000f06:	68fb      	ldr	r3, [r7, #12]
 8000f08:	607b      	str	r3, [r7, #4]
 8000f0a:	693b      	ldr	r3, [r7, #16]
 8000f0c:	603b      	str	r3, [r7, #0]
 8000f0e:	e7e2      	b.n	8000ed6 <gcd+0xa>
 8000f10:	bf00      	nop
 8000f12:	693b      	ldr	r3, [r7, #16]
 8000f14:	4618      	mov	r0, r3
 8000f16:	371c      	adds	r7, #28
 8000f18:	46bd      	mov	sp, r7
 8000f1a:	f85d 7b04 	ldr.w	r7, [sp], #4
 8000f1e:	4770      	bx	lr

08000f20 <registerTask>:
 8000f20:	b580      	push	{r7, lr}
 8000f22:	b084      	sub	sp, #16
 8000f24:	af00      	add	r7, sp, #0
 8000f26:	60f8      	str	r0, [r7, #12]
 8000f28:	60b9      	str	r1, [r7, #8]
 8000f2a:	607a      	str	r2, [r7, #4]
 8000f2c:	603b      	str	r3, [r7, #0]
 8000f2e:	492a      	ldr	r1, [pc, #168]	; (8000fd8 <registerTask+0xb8>)
 8000f30:	687a      	ldr	r2, [r7, #4]
 8000f32:	4613      	mov	r3, r2
 8000f34:	005b      	lsls	r3, r3, #1
 8000f36:	4413      	add	r3, r2
 8000f38:	011b      	lsls	r3, r3, #4
 8000f3a:	440b      	add	r3, r1
 8000f3c:	687a      	ldr	r2, [r7, #4]
 8000f3e:	601a      	str	r2, [r3, #0]
 8000f40:	4925      	ldr	r1, [pc, #148]	; (8000fd8 <registerTask+0xb8>)
 8000f42:	687a      	ldr	r2, [r7, #4]
 8000f44:	4613      	mov	r3, r2
 8000f46:	005b      	lsls	r3, r3, #1
 8000f48:	4413      	add	r3, r2
 8000f4a:	009b      	lsls	r3, r3, #2
 8000f4c:	683a      	ldr	r2, [r7, #0]
 8000f4e:	4413      	add	r3, r2
 8000f50:	009b      	lsls	r3, r3, #2
 8000f52:	440b      	add	r3, r1
 8000f54:	69ba      	ldr	r2, [r7, #24]
 8000f56:	605a      	str	r2, [r3, #4]
 8000f58:	491f      	ldr	r1, [pc, #124]	; (8000fd8 <registerTask+0xb8>)
 8000f5a:	687a      	ldr	r2, [r7, #4]
 8000f5c:	4613      	mov	r3, r2
 8000f5e:	005b      	lsls	r3, r3, #1
 8000f60:	4413      	add	r3, r2
 8000f62:	009b      	lsls	r3, r3, #2
 8000f64:	683a      	ldr	r2, [r7, #0]
 8000f66:	4413      	add	r3, r2
 8000f68:	3306      	adds	r3, #6
 8000f6a:	68fa      	ldr	r2, [r7, #12]
 8000f6c:	f841 2023 	str.w	r2, [r1, r3, lsl #2]
 8000f70:	4919      	ldr	r1, [pc, #100]	; (8000fd8 <registerTask+0xb8>)
 8000f72:	687a      	ldr	r2, [r7, #4]
 8000f74:	4613      	mov	r3, r2
 8000f76:	005b      	lsls	r3, r3, #1
 8000f78:	4413      	add	r3, r2
 8000f7a:	011b      	lsls	r3, r3, #4
 8000f7c:	440b      	add	r3, r1
 8000f7e:	332c      	adds	r3, #44	; 0x2c
 8000f80:	681b      	ldr	r3, [r3, #0]
 8000f82:	1c59      	adds	r1, r3, #1
 8000f84:	4814      	ldr	r0, [pc, #80]	; (8000fd8 <registerTask+0xb8>)
 8000f86:	687a      	ldr	r2, [r7, #4]
 8000f88:	4613      	mov	r3, r2
 8000f8a:	005b      	lsls	r3, r3, #1
 8000f8c:	4413      	add	r3, r2
 8000f8e:	011b      	lsls	r3, r3, #4
 8000f90:	4403      	add	r3, r0
 8000f92:	332c      	adds	r3, #44	; 0x2c
 8000f94:	6019      	str	r1, [r3, #0]
 8000f96:	4a11      	ldr	r2, [pc, #68]	; (8000fdc <registerTask+0xbc>)
 8000f98:	69bb      	ldr	r3, [r7, #24]
 8000f9a:	2134      	movs	r1, #52	; 0x34
 8000f9c:	fb01 f303 	mul.w	r3, r1, r3
 8000fa0:	4413      	add	r3, r2
 8000fa2:	3314      	adds	r3, #20
 8000fa4:	68fa      	ldr	r2, [r7, #12]
 8000fa6:	601a      	str	r2, [r3, #0]
 8000fa8:	69bb      	ldr	r3, [r7, #24]
 8000faa:	2234      	movs	r2, #52	; 0x34
 8000fac:	fb02 f303 	mul.w	r3, r2, r3
 8000fb0:	4a0a      	ldr	r2, [pc, #40]	; (8000fdc <registerTask+0xbc>)
 8000fb2:	4413      	add	r3, r2
 8000fb4:	68b9      	ldr	r1, [r7, #8]
 8000fb6:	4618      	mov	r0, r3
 8000fb8:	f00d f923 	bl	800e202 <strcpy>
 8000fbc:	4a07      	ldr	r2, [pc, #28]	; (8000fdc <registerTask+0xbc>)
 8000fbe:	69bb      	ldr	r3, [r7, #24]
 8000fc0:	2134      	movs	r1, #52	; 0x34
 8000fc2:	fb01 f303 	mul.w	r3, r1, r3
 8000fc6:	4413      	add	r3, r2
 8000fc8:	3318      	adds	r3, #24
 8000fca:	69fa      	ldr	r2, [r7, #28]
 8000fcc:	601a      	str	r2, [r3, #0]
 8000fce:	bf00      	nop
 8000fd0:	3710      	adds	r7, #16
 8000fd2:	46bd      	mov	sp, r7
 8000fd4:	bd80      	pop	{r7, pc}
 8000fd6:	bf00      	nop
 8000fd8:	20000c98 	mulcs	r0, r8, ip
 8000fdc:	20000b84 	andcs	r0, r0, r4, lsl #23

08000fe0 <task_scheduler_tick_reset>:
 8000fe0:	b580      	push	{r7, lr}
 8000fe2:	af00      	add	r7, sp, #0
 8000fe4:	4b10      	ldr	r3, [pc, #64]	; (8001028 <task_scheduler_tick_reset+0x48>)
 8000fe6:	2200      	movs	r2, #0
 8000fe8:	601a      	str	r2, [r3, #0]
 8000fea:	4b10      	ldr	r3, [pc, #64]	; (800102c <task_scheduler_tick_reset+0x4c>)
 8000fec:	2200      	movs	r2, #0
 8000fee:	601a      	str	r2, [r3, #0]
 8000ff0:	480f      	ldr	r0, [pc, #60]	; (8001030 <task_scheduler_tick_reset+0x50>)
 8000ff2:	f008 f811 	bl	8009018 <HAL_TIM_Base_Stop_IT>
 8000ff6:	4b0f      	ldr	r3, [pc, #60]	; (8001034 <task_scheduler_tick_reset+0x54>)
 8000ff8:	681a      	ldr	r2, [r3, #0]
 8000ffa:	4b0d      	ldr	r3, [pc, #52]	; (8001030 <task_scheduler_tick_reset+0x50>)
 8000ffc:	685b      	ldr	r3, [r3, #4]
 8000ffe:	3301      	adds	r3, #1
 8001000:	fbb2 f3f3 	udiv	r3, r2, r3
 8001004:	4a0c      	ldr	r2, [pc, #48]	; (8001038 <task_scheduler_tick_reset+0x58>)
 8001006:	fba2 2303 	umull	r2, r3, r2, r3
 800100a:	099b      	lsrs	r3, r3, #6
 800100c:	4a0b      	ldr	r2, [pc, #44]	; (800103c <task_scheduler_tick_reset+0x5c>)
 800100e:	6812      	ldr	r2, [r2, #0]
 8001010:	fb02 f303 	mul.w	r3, r2, r3
 8001014:	4a06      	ldr	r2, [pc, #24]	; (8001030 <task_scheduler_tick_reset+0x50>)
 8001016:	60d3      	str	r3, [r2, #12]
 8001018:	4805      	ldr	r0, [pc, #20]	; (8001030 <task_scheduler_tick_reset+0x50>)
 800101a:	f007 ff52 	bl	8008ec2 <HAL_TIM_Base_Init>
 800101e:	4804      	ldr	r0, [pc, #16]	; (8001030 <task_scheduler_tick_reset+0x50>)
 8001020:	f007 ffd0 	bl	8008fc4 <HAL_TIM_Base_Start_IT>
 8001024:	bf00      	nop
 8001026:	bd80      	pop	{r7, pc}
 8001028:	20000b78 	andcs	r0, r0, r8, ror fp
 800102c:	20000b7c 	andcs	r0, r0, ip, ror fp
 8001030:	20003420 	andcs	r3, r0, r0, lsr #8
 8001034:	20000038 	andcs	r0, r0, r8, lsr r0
 8001038:	10624dd3 	ldrdne	r4, [r2], #-211	; 0xffffff2d	; <UNPREDICTABLE>
 800103c:	20000004 	andcs	r0, r0, r4

08001040 <changeMode>:
 8001040:	b590      	push	{r4, r7, lr}
 8001042:	b0bb      	sub	sp, #236	; 0xec
 8001044:	af02      	add	r7, sp, #8
 8001046:	6078      	str	r0, [r7, #4]
 8001048:	4b69      	ldr	r3, [pc, #420]	; (80011f0 <changeMode+0x1b0>)
 800104a:	681b      	ldr	r3, [r3, #0]
 800104c:	2b00      	cmp	r3, #0
 800104e:	d101      	bne.n	8001054 <changeMode+0x14>
 8001050:	4b68      	ldr	r3, [pc, #416]	; (80011f4 <changeMode+0x1b4>)
 8001052:	e000      	b.n	8001056 <changeMode+0x16>
 8001054:	4b68      	ldr	r3, [pc, #416]	; (80011f8 <changeMode+0x1b8>)
 8001056:	f8c7 30d4 	str.w	r3, [r7, #212]	; 0xd4
 800105a:	f8d7 00d4 	ldr.w	r0, [r7, #212]	; 0xd4
 800105e:	f7ff f8c1 	bl	80001e4 <strlen>
 8001062:	4603      	mov	r3, r0
 8001064:	b29a      	uxth	r2, r3
 8001066:	f64f 73ff 	movw	r3, #65535	; 0xffff
 800106a:	f8d7 10d4 	ldr.w	r1, [r7, #212]	; 0xd4
 800106e:	4863      	ldr	r0, [pc, #396]	; (80011fc <changeMode+0x1bc>)
 8001070:	f008 fa4a 	bl	8009508 <HAL_UART_Transmit>
 8001074:	4b5e      	ldr	r3, [pc, #376]	; (80011f0 <changeMode+0x1b0>)
 8001076:	681b      	ldr	r3, [r3, #0]
 8001078:	2b00      	cmp	r3, #0
 800107a:	d150      	bne.n	800111e <changeMode+0xde>
 800107c:	2300      	movs	r3, #0
 800107e:	f8c7 30dc 	str.w	r3, [r7, #220]	; 0xdc
 8001082:	e036      	b.n	80010f2 <changeMode+0xb2>
 8001084:	4a5e      	ldr	r2, [pc, #376]	; (8001200 <changeMode+0x1c0>)
 8001086:	f8d7 30dc 	ldr.w	r3, [r7, #220]	; 0xdc
 800108a:	2134      	movs	r1, #52	; 0x34
 800108c:	fb01 f303 	mul.w	r3, r1, r3
 8001090:	4413      	add	r3, r2
 8001092:	3320      	adds	r3, #32
 8001094:	2200      	movs	r2, #0
 8001096:	601a      	str	r2, [r3, #0]
 8001098:	4a59      	ldr	r2, [pc, #356]	; (8001200 <changeMode+0x1c0>)
 800109a:	f8d7 30dc 	ldr.w	r3, [r7, #220]	; 0xdc
 800109e:	2134      	movs	r1, #52	; 0x34
 80010a0:	fb01 f303 	mul.w	r3, r1, r3
 80010a4:	4413      	add	r3, r2
 80010a6:	3324      	adds	r3, #36	; 0x24
 80010a8:	2200      	movs	r2, #0
 80010aa:	601a      	str	r2, [r3, #0]
 80010ac:	4a54      	ldr	r2, [pc, #336]	; (8001200 <changeMode+0x1c0>)
 80010ae:	f8d7 30dc 	ldr.w	r3, [r7, #220]	; 0xdc
 80010b2:	2134      	movs	r1, #52	; 0x34
 80010b4:	fb01 f303 	mul.w	r3, r1, r3
 80010b8:	4413      	add	r3, r2
 80010ba:	3330      	adds	r3, #48	; 0x30
 80010bc:	2200      	movs	r2, #0
 80010be:	601a      	str	r2, [r3, #0]
 80010c0:	4a4f      	ldr	r2, [pc, #316]	; (8001200 <changeMode+0x1c0>)
 80010c2:	f8d7 30dc 	ldr.w	r3, [r7, #220]	; 0xdc
 80010c6:	2134      	movs	r1, #52	; 0x34
 80010c8:	fb01 f303 	mul.w	r3, r1, r3
 80010cc:	4413      	add	r3, r2
 80010ce:	3328      	adds	r3, #40	; 0x28
 80010d0:	2200      	movs	r2, #0
 80010d2:	601a      	str	r2, [r3, #0]
 80010d4:	4a4a      	ldr	r2, [pc, #296]	; (8001200 <changeMode+0x1c0>)
 80010d6:	f8d7 30dc 	ldr.w	r3, [r7, #220]	; 0xdc
 80010da:	2134      	movs	r1, #52	; 0x34
 80010dc:	fb01 f303 	mul.w	r3, r1, r3
 80010e0:	4413      	add	r3, r2
 80010e2:	332c      	adds	r3, #44	; 0x2c
 80010e4:	2200      	movs	r2, #0
 80010e6:	601a      	str	r2, [r3, #0]
 80010e8:	f8d7 30dc 	ldr.w	r3, [r7, #220]	; 0xdc
 80010ec:	3301      	adds	r3, #1
 80010ee:	f8c7 30dc 	str.w	r3, [r7, #220]	; 0xdc
 80010f2:	f8d7 30dc 	ldr.w	r3, [r7, #220]	; 0xdc
 80010f6:	2b04      	cmp	r3, #4
 80010f8:	ddc4      	ble.n	8001084 <changeMode+0x44>
 80010fa:	4b42      	ldr	r3, [pc, #264]	; (8001204 <changeMode+0x1c4>)
 80010fc:	f240 52dc 	movw	r2, #1500	; 0x5dc
 8001100:	601a      	str	r2, [r3, #0]
 8001102:	4b41      	ldr	r3, [pc, #260]	; (8001208 <changeMode+0x1c8>)
 8001104:	f44f 7296 	mov.w	r2, #300	; 0x12c
 8001108:	601a      	str	r2, [r3, #0]
 800110a:	4b40      	ldr	r3, [pc, #256]	; (800120c <changeMode+0x1cc>)
 800110c:	2205      	movs	r2, #5
 800110e:	601a      	str	r2, [r3, #0]
 8001110:	4b3f      	ldr	r3, [pc, #252]	; (8001210 <changeMode+0x1d0>)
 8001112:	2200      	movs	r2, #0
 8001114:	601a      	str	r2, [r3, #0]
 8001116:	4b3f      	ldr	r3, [pc, #252]	; (8001214 <changeMode+0x1d4>)
 8001118:	2200      	movs	r2, #0
 800111a:	601a      	str	r2, [r3, #0]
 800111c:	e061      	b.n	80011e2 <changeMode+0x1a2>
 800111e:	f000 f977 	bl	8001410 <buildFastMatrix>
 8001122:	f000 fea7 	bl	8001e74 <showFastMatrix>
 8001126:	4b37      	ldr	r3, [pc, #220]	; (8001204 <changeMode+0x1c4>)
 8001128:	681a      	ldr	r2, [r3, #0]
 800112a:	4b37      	ldr	r3, [pc, #220]	; (8001208 <changeMode+0x1c8>)
 800112c:	6819      	ldr	r1, [r3, #0]
 800112e:	4b37      	ldr	r3, [pc, #220]	; (800120c <changeMode+0x1cc>)
 8001130:	681b      	ldr	r3, [r3, #0]
 8001132:	f107 000c 	add.w	r0, r7, #12
 8001136:	9300      	str	r3, [sp, #0]
 8001138:	460b      	mov	r3, r1
 800113a:	4937      	ldr	r1, [pc, #220]	; (8001218 <changeMode+0x1d8>)
 800113c:	f00c ffe2 	bl	800e104 <siprintf>
 8001140:	f107 030c 	add.w	r3, r7, #12
 8001144:	4618      	mov	r0, r3
 8001146:	f7ff f84d 	bl	80001e4 <strlen>
 800114a:	4603      	mov	r3, r0
 800114c:	b29a      	uxth	r2, r3
 800114e:	f107 010c 	add.w	r1, r7, #12
 8001152:	f64f 73ff 	movw	r3, #65535	; 0xffff
 8001156:	4829      	ldr	r0, [pc, #164]	; (80011fc <changeMode+0x1bc>)
 8001158:	f008 f9d6 	bl	8009508 <HAL_UART_Transmit>
 800115c:	2300      	movs	r3, #0
 800115e:	f8c7 30d8 	str.w	r3, [r7, #216]	; 0xd8
 8001162:	e032      	b.n	80011ca <changeMode+0x18a>
 8001164:	f8d7 30d8 	ldr.w	r3, [r7, #216]	; 0xd8
 8001168:	2234      	movs	r2, #52	; 0x34
 800116a:	fb02 f303 	mul.w	r3, r2, r3
 800116e:	4a24      	ldr	r2, [pc, #144]	; (8001200 <changeMode+0x1c0>)
 8001170:	441a      	add	r2, r3
 8001172:	4923      	ldr	r1, [pc, #140]	; (8001200 <changeMode+0x1c0>)
 8001174:	f8d7 30d8 	ldr.w	r3, [r7, #216]	; 0xd8
 8001178:	2034      	movs	r0, #52	; 0x34
 800117a:	fb00 f303 	mul.w	r3, r0, r3
 800117e:	440b      	add	r3, r1
 8001180:	3318      	adds	r3, #24
 8001182:	6819      	ldr	r1, [r3, #0]
 8001184:	481e      	ldr	r0, [pc, #120]	; (8001200 <changeMode+0x1c0>)
 8001186:	f8d7 30d8 	ldr.w	r3, [r7, #216]	; 0xd8
 800118a:	2434      	movs	r4, #52	; 0x34
 800118c:	fb04 f303 	mul.w	r3, r4, r3
 8001190:	4403      	add	r3, r0
 8001192:	331c      	adds	r3, #28
 8001194:	681b      	ldr	r3, [r3, #0]
 8001196:	f107 000c 	add.w	r0, r7, #12
 800119a:	9300      	str	r3, [sp, #0]
 800119c:	460b      	mov	r3, r1
 800119e:	491f      	ldr	r1, [pc, #124]	; (800121c <changeMode+0x1dc>)
 80011a0:	f00c ffb0 	bl	800e104 <siprintf>
 80011a4:	f107 030c 	add.w	r3, r7, #12
 80011a8:	4618      	mov	r0, r3
 80011aa:	f7ff f81b 	bl	80001e4 <strlen>
 80011ae:	4603      	mov	r3, r0
 80011b0:	b29a      	uxth	r2, r3
 80011b2:	f107 010c 	add.w	r1, r7, #12
 80011b6:	f64f 73ff 	movw	r3, #65535	; 0xffff
 80011ba:	4810      	ldr	r0, [pc, #64]	; (80011fc <changeMode+0x1bc>)
 80011bc:	f008 f9a4 	bl	8009508 <HAL_UART_Transmit>
 80011c0:	f8d7 30d8 	ldr.w	r3, [r7, #216]	; 0xd8
 80011c4:	3301      	adds	r3, #1
 80011c6:	f8c7 30d8 	str.w	r3, [r7, #216]	; 0xd8
 80011ca:	f8d7 30d8 	ldr.w	r3, [r7, #216]	; 0xd8
 80011ce:	2b04      	cmp	r3, #4
 80011d0:	ddc8      	ble.n	8001164 <changeMode+0x124>
 80011d2:	687b      	ldr	r3, [r7, #4]
 80011d4:	f44f 727a 	mov.w	r2, #1000	; 0x3e8
 80011d8:	fb02 f303 	mul.w	r3, r2, r3
 80011dc:	4618      	mov	r0, r3
 80011de:	f003 ffd5 	bl	800518c <HAL_Delay>
 80011e2:	f7ff fefd 	bl	8000fe0 <task_scheduler_tick_reset>
 80011e6:	bf00      	nop
 80011e8:	37e4      	adds	r7, #228	; 0xe4
 80011ea:	46bd      	mov	sp, r7
 80011ec:	bd90      	pop	{r4, r7, pc}
 80011ee:	bf00      	nop
 80011f0:	20000c88 	andcs	r0, r0, r8, lsl #25
 80011f4:	08010500 	stmdaeq	r1, {r8, sl}
 80011f8:	08010550 	stmdaeq	r1, {r4, r6, r8, sl}
 80011fc:	200033a0 	andcs	r3, r0, r0, lsr #7
 8001200:	20000b84 	andcs	r0, r0, r4, lsl #23
 8001204:	20000000 	andcs	r0, r0, r0
 8001208:	20000004 	andcs	r0, r0, r4
 800120c:	20000008 	andcs	r0, r0, r8
 8001210:	20000b78 	andcs	r0, r0, r8, ror fp
 8001214:	20000b7c 	andcs	r0, r0, ip, ror fp
 8001218:	0801058c 	stmdaeq	r1, {r2, r3, r7, r8, sl}
 800121c:	080105c0 	stmdaeq	r1, {r6, r7, r8, sl}

08001220 <task_scheduler>:
 8001220:	b580      	push	{r7, lr}
 8001222:	b0b8      	sub	sp, #224	; 0xe0
 8001224:	af00      	add	r7, sp, #0
 8001226:	f7ff fedb 	bl	8000fe0 <task_scheduler_tick_reset>
 800122a:	f003 ffa3 	bl	8005174 <HAL_GetTick>
 800122e:	4603      	mov	r3, r0
 8001230:	4a5d      	ldr	r2, [pc, #372]	; (80013a8 <task_scheduler+0x188>)
 8001232:	6013      	str	r3, [r2, #0]
 8001234:	4b5d      	ldr	r3, [pc, #372]	; (80013ac <task_scheduler+0x18c>)
 8001236:	681b      	ldr	r3, [r3, #0]
 8001238:	2b00      	cmp	r3, #0
 800123a:	d005      	beq.n	8001248 <task_scheduler+0x28>
 800123c:	4b5b      	ldr	r3, [pc, #364]	; (80013ac <task_scheduler+0x18c>)
 800123e:	2200      	movs	r2, #0
 8001240:	601a      	str	r2, [r3, #0]
 8001242:	200a      	movs	r0, #10
 8001244:	f7ff fefc 	bl	8001040 <changeMode>
 8001248:	4b59      	ldr	r3, [pc, #356]	; (80013b0 <task_scheduler+0x190>)
 800124a:	2200      	movs	r2, #0
 800124c:	601a      	str	r2, [r3, #0]
 800124e:	4b59      	ldr	r3, [pc, #356]	; (80013b4 <task_scheduler+0x194>)
 8001250:	681b      	ldr	r3, [r3, #0]
 8001252:	2b00      	cmp	r3, #0
 8001254:	d169      	bne.n	800132a <task_scheduler+0x10a>
 8001256:	2300      	movs	r3, #0
 8001258:	f8c7 30dc 	str.w	r3, [r7, #220]	; 0xdc
 800125c:	e056      	b.n	800130c <task_scheduler+0xec>
 800125e:	f003 ff89 	bl	8005174 <HAL_GetTick>
 8001262:	4603      	mov	r3, r0
 8001264:	f8c7 30d4 	str.w	r3, [r7, #212]	; 0xd4
 8001268:	4b53      	ldr	r3, [pc, #332]	; (80013b8 <task_scheduler+0x198>)
 800126a:	681a      	ldr	r2, [r3, #0]
 800126c:	4953      	ldr	r1, [pc, #332]	; (80013bc <task_scheduler+0x19c>)
 800126e:	4613      	mov	r3, r2
 8001270:	005b      	lsls	r3, r3, #1
 8001272:	4413      	add	r3, r2
 8001274:	009b      	lsls	r3, r3, #2
 8001276:	f8d7 20dc 	ldr.w	r2, [r7, #220]	; 0xdc
 800127a:	4413      	add	r3, r2
 800127c:	3306      	adds	r3, #6
 800127e:	f851 3023 	ldr.w	r3, [r1, r3, lsl #2]
 8001282:	4798      	blx	r3
 8001284:	f003 ff76 	bl	8005174 <HAL_GetTick>
 8001288:	4603      	mov	r3, r0
 800128a:	f8c7 30d0 	str.w	r3, [r7, #208]	; 0xd0
 800128e:	4b4a      	ldr	r3, [pc, #296]	; (80013b8 <task_scheduler+0x198>)
 8001290:	681a      	ldr	r2, [r3, #0]
 8001292:	494a      	ldr	r1, [pc, #296]	; (80013bc <task_scheduler+0x19c>)
 8001294:	4613      	mov	r3, r2
 8001296:	005b      	lsls	r3, r3, #1
 8001298:	4413      	add	r3, r2
 800129a:	009b      	lsls	r3, r3, #2
 800129c:	f8d7 20dc 	ldr.w	r2, [r7, #220]	; 0xdc
 80012a0:	4413      	add	r3, r2
 80012a2:	009b      	lsls	r3, r3, #2
 80012a4:	440b      	add	r3, r1
 80012a6:	685b      	ldr	r3, [r3, #4]
 80012a8:	f8c7 30cc 	str.w	r3, [r7, #204]	; 0xcc
 80012ac:	4a44      	ldr	r2, [pc, #272]	; (80013c0 <task_scheduler+0x1a0>)
 80012ae:	f8d7 30cc 	ldr.w	r3, [r7, #204]	; 0xcc
 80012b2:	2134      	movs	r1, #52	; 0x34
 80012b4:	fb01 f303 	mul.w	r3, r1, r3
 80012b8:	4413      	add	r3, r2
 80012ba:	3328      	adds	r3, #40	; 0x28
 80012bc:	681a      	ldr	r2, [r3, #0]
 80012be:	f8d7 10d0 	ldr.w	r1, [r7, #208]	; 0xd0
 80012c2:	f8d7 30d4 	ldr.w	r3, [r7, #212]	; 0xd4
 80012c6:	1acb      	subs	r3, r1, r3
 80012c8:	441a      	add	r2, r3
 80012ca:	493d      	ldr	r1, [pc, #244]	; (80013c0 <task_scheduler+0x1a0>)
 80012cc:	f8d7 30cc 	ldr.w	r3, [r7, #204]	; 0xcc
 80012d0:	2034      	movs	r0, #52	; 0x34
 80012d2:	fb00 f303 	mul.w	r3, r0, r3
 80012d6:	440b      	add	r3, r1
 80012d8:	3328      	adds	r3, #40	; 0x28
 80012da:	601a      	str	r2, [r3, #0]
 80012dc:	4a38      	ldr	r2, [pc, #224]	; (80013c0 <task_scheduler+0x1a0>)
 80012de:	f8d7 30cc 	ldr.w	r3, [r7, #204]	; 0xcc
 80012e2:	2134      	movs	r1, #52	; 0x34
 80012e4:	fb01 f303 	mul.w	r3, r1, r3
 80012e8:	4413      	add	r3, r2
 80012ea:	332c      	adds	r3, #44	; 0x2c
 80012ec:	681b      	ldr	r3, [r3, #0]
 80012ee:	1c5a      	adds	r2, r3, #1
 80012f0:	4933      	ldr	r1, [pc, #204]	; (80013c0 <task_scheduler+0x1a0>)
 80012f2:	f8d7 30cc 	ldr.w	r3, [r7, #204]	; 0xcc
 80012f6:	2034      	movs	r0, #52	; 0x34
 80012f8:	fb00 f303 	mul.w	r3, r0, r3
 80012fc:	440b      	add	r3, r1
 80012fe:	332c      	adds	r3, #44	; 0x2c
 8001300:	601a      	str	r2, [r3, #0]
 8001302:	f8d7 30dc 	ldr.w	r3, [r7, #220]	; 0xdc
 8001306:	3301      	adds	r3, #1
 8001308:	f8c7 30dc 	str.w	r3, [r7, #220]	; 0xdc
 800130c:	4b2a      	ldr	r3, [pc, #168]	; (80013b8 <task_scheduler+0x198>)
 800130e:	681a      	ldr	r2, [r3, #0]
 8001310:	492a      	ldr	r1, [pc, #168]	; (80013bc <task_scheduler+0x19c>)
 8001312:	4613      	mov	r3, r2
 8001314:	005b      	lsls	r3, r3, #1
 8001316:	4413      	add	r3, r2
 8001318:	011b      	lsls	r3, r3, #4
 800131a:	440b      	add	r3, r1
 800131c:	332c      	adds	r3, #44	; 0x2c
 800131e:	681b      	ldr	r3, [r3, #0]
 8001320:	f8d7 20dc 	ldr.w	r2, [r7, #220]	; 0xdc
 8001324:	429a      	cmp	r2, r3
 8001326:	db9a      	blt.n	800125e <task_scheduler+0x3e>
 8001328:	e024      	b.n	8001374 <task_scheduler+0x154>
 800132a:	2300      	movs	r3, #0
 800132c:	f8c7 30d8 	str.w	r3, [r7, #216]	; 0xd8
 8001330:	e012      	b.n	8001358 <task_scheduler+0x138>
 8001332:	4b21      	ldr	r3, [pc, #132]	; (80013b8 <task_scheduler+0x198>)
 8001334:	681a      	ldr	r2, [r3, #0]
 8001336:	4923      	ldr	r1, [pc, #140]	; (80013c4 <task_scheduler+0x1a4>)
 8001338:	4613      	mov	r3, r2
 800133a:	005b      	lsls	r3, r3, #1
 800133c:	4413      	add	r3, r2
 800133e:	009b      	lsls	r3, r3, #2
 8001340:	f8d7 20d8 	ldr.w	r2, [r7, #216]	; 0xd8
 8001344:	4413      	add	r3, r2
 8001346:	3306      	adds	r3, #6
 8001348:	f851 3023 	ldr.w	r3, [r1, r3, lsl #2]
 800134c:	4798      	blx	r3
 800134e:	f8d7 30d8 	ldr.w	r3, [r7, #216]	; 0xd8
 8001352:	3301      	adds	r3, #1
 8001354:	f8c7 30d8 	str.w	r3, [r7, #216]	; 0xd8
 8001358:	4b17      	ldr	r3, [pc, #92]	; (80013b8 <task_scheduler+0x198>)
 800135a:	681a      	ldr	r2, [r3, #0]
 800135c:	4919      	ldr	r1, [pc, #100]	; (80013c4 <task_scheduler+0x1a4>)
 800135e:	4613      	mov	r3, r2
 8001360:	005b      	lsls	r3, r3, #1
 8001362:	4413      	add	r3, r2
 8001364:	011b      	lsls	r3, r3, #4
 8001366:	440b      	add	r3, r1
 8001368:	332c      	adds	r3, #44	; 0x2c
 800136a:	681b      	ldr	r3, [r3, #0]
 800136c:	f8d7 20d8 	ldr.w	r2, [r7, #216]	; 0xd8
 8001370:	429a      	cmp	r2, r3
 8001372:	dbde      	blt.n	8001332 <task_scheduler+0x112>
 8001374:	4b10      	ldr	r3, [pc, #64]	; (80013b8 <task_scheduler+0x198>)
 8001376:	681b      	ldr	r3, [r3, #0]
 8001378:	3301      	adds	r3, #1
 800137a:	4a0f      	ldr	r2, [pc, #60]	; (80013b8 <task_scheduler+0x198>)
 800137c:	6013      	str	r3, [r2, #0]
 800137e:	4b0e      	ldr	r3, [pc, #56]	; (80013b8 <task_scheduler+0x198>)
 8001380:	681a      	ldr	r2, [r3, #0]
 8001382:	4b11      	ldr	r3, [pc, #68]	; (80013c8 <task_scheduler+0x1a8>)
 8001384:	681b      	ldr	r3, [r3, #0]
 8001386:	429a      	cmp	r2, r3
 8001388:	d107      	bne.n	800139a <task_scheduler+0x17a>
 800138a:	4b0b      	ldr	r3, [pc, #44]	; (80013b8 <task_scheduler+0x198>)
 800138c:	2200      	movs	r2, #0
 800138e:	601a      	str	r2, [r3, #0]
 8001390:	4b0e      	ldr	r3, [pc, #56]	; (80013cc <task_scheduler+0x1ac>)
 8001392:	681b      	ldr	r3, [r3, #0]
 8001394:	3301      	adds	r3, #1
 8001396:	4a0d      	ldr	r2, [pc, #52]	; (80013cc <task_scheduler+0x1ac>)
 8001398:	6013      	str	r3, [r2, #0]
 800139a:	bf00      	nop
 800139c:	4b04      	ldr	r3, [pc, #16]	; (80013b0 <task_scheduler+0x190>)
 800139e:	681b      	ldr	r3, [r3, #0]
 80013a0:	2b00      	cmp	r3, #0
 80013a2:	d0fb      	beq.n	800139c <task_scheduler+0x17c>
 80013a4:	e741      	b.n	800122a <task_scheduler+0xa>
 80013a6:	bf00      	nop
 80013a8:	20000b80 	andcs	r0, r0, r0, lsl #23
 80013ac:	20000c90 	mulcs	r0, r0, ip
 80013b0:	20000c8c 	andcs	r0, r0, ip, lsl #25
 80013b4:	20000c88 	andcs	r0, r0, r8, lsl #25
 80013b8:	20000b7c 	andcs	r0, r0, ip, ror fp
 80013bc:	20000c98 	mulcs	r0, r8, ip
 80013c0:	20000b84 	andcs	r0, r0, r4, lsl #23
 80013c4:	20000d88 	andcs	r0, r0, r8, lsl #27
 80013c8:	20000008 	andcs	r0, r0, r8
 80013cc:	20000b78 	andcs	r0, r0, r8, ror fp

080013d0 <lcm>:
 80013d0:	b580      	push	{r7, lr}
 80013d2:	b086      	sub	sp, #24
 80013d4:	af00      	add	r7, sp, #0
 80013d6:	6078      	str	r0, [r7, #4]
 80013d8:	6039      	str	r1, [r7, #0]
 80013da:	6839      	ldr	r1, [r7, #0]
 80013dc:	6878      	ldr	r0, [r7, #4]
 80013de:	f7ff fd75 	bl	8000ecc <gcd>
 80013e2:	6178      	str	r0, [r7, #20]
 80013e4:	687a      	ldr	r2, [r7, #4]
 80013e6:	697b      	ldr	r3, [r7, #20]
 80013e8:	fb92 f3f3 	sdiv	r3, r2, r3
 80013ec:	613b      	str	r3, [r7, #16]
 80013ee:	683a      	ldr	r2, [r7, #0]
 80013f0:	697b      	ldr	r3, [r7, #20]
 80013f2:	fb92 f3f3 	sdiv	r3, r2, r3
 80013f6:	60fb      	str	r3, [r7, #12]
 80013f8:	693b      	ldr	r3, [r7, #16]
 80013fa:	68fa      	ldr	r2, [r7, #12]
 80013fc:	fb02 f303 	mul.w	r3, r2, r3
 8001400:	697a      	ldr	r2, [r7, #20]
 8001402:	fb02 f303 	mul.w	r3, r2, r3
 8001406:	4618      	mov	r0, r3
 8001408:	3718      	adds	r7, #24
 800140a:	46bd      	mov	sp, r7
 800140c:	bd80      	pop	{r7, pc}
	...

08001410 <buildFastMatrix>:
 8001410:	b590      	push	{r4, r7, lr}
 8001412:	b0f9      	sub	sp, #484	; 0x1e4
 8001414:	af00      	add	r7, sp, #0
 8001416:	2300      	movs	r3, #0
 8001418:	f8c7 31dc 	str.w	r3, [r7, #476]	; 0x1dc
 800141c:	e0bf      	b.n	800159e <buildFastMatrix+0x18e>
 800141e:	4ab4      	ldr	r2, [pc, #720]	; (80016f0 <buildFastMatrix+0x2e0>)
 8001420:	f8d7 31dc 	ldr.w	r3, [r7, #476]	; 0x1dc
 8001424:	2134      	movs	r1, #52	; 0x34
 8001426:	fb01 f303 	mul.w	r3, r1, r3
 800142a:	4413      	add	r3, r2
 800142c:	332c      	adds	r3, #44	; 0x2c
 800142e:	681b      	ldr	r3, [r3, #0]
 8001430:	2b00      	cmp	r3, #0
 8001432:	d112      	bne.n	800145a <buildFastMatrix+0x4a>
 8001434:	4aae      	ldr	r2, [pc, #696]	; (80016f0 <buildFastMatrix+0x2e0>)
 8001436:	f8d7 31dc 	ldr.w	r3, [r7, #476]	; 0x1dc
 800143a:	2134      	movs	r1, #52	; 0x34
 800143c:	fb01 f303 	mul.w	r3, r1, r3
 8001440:	4413      	add	r3, r2
 8001442:	3318      	adds	r3, #24
 8001444:	681a      	ldr	r2, [r3, #0]
 8001446:	49aa      	ldr	r1, [pc, #680]	; (80016f0 <buildFastMatrix+0x2e0>)
 8001448:	f8d7 31dc 	ldr.w	r3, [r7, #476]	; 0x1dc
 800144c:	2034      	movs	r0, #52	; 0x34
 800144e:	fb00 f303 	mul.w	r3, r0, r3
 8001452:	440b      	add	r3, r1
 8001454:	331c      	adds	r3, #28
 8001456:	601a      	str	r2, [r3, #0]
 8001458:	e09c      	b.n	8001594 <buildFastMatrix+0x184>
 800145a:	4aa5      	ldr	r2, [pc, #660]	; (80016f0 <buildFastMatrix+0x2e0>)
 800145c:	f8d7 31dc 	ldr.w	r3, [r7, #476]	; 0x1dc
 8001460:	2134      	movs	r1, #52	; 0x34
 8001462:	fb01 f303 	mul.w	r3, r1, r3
 8001466:	4413      	add	r3, r2
 8001468:	3328      	adds	r3, #40	; 0x28
 800146a:	681b      	ldr	r3, [r3, #0]
 800146c:	ee07 3a90 	vmov	s15, r3
 8001470:	eef8 6ae7 	vcvt.f32.s32	s13, s15
 8001474:	4a9e      	ldr	r2, [pc, #632]	; (80016f0 <buildFastMatrix+0x2e0>)
 8001476:	f8d7 31dc 	ldr.w	r3, [r7, #476]	; 0x1dc
 800147a:	2134      	movs	r1, #52	; 0x34
 800147c:	fb01 f303 	mul.w	r3, r1, r3
 8001480:	4413      	add	r3, r2
 8001482:	332c      	adds	r3, #44	; 0x2c
 8001484:	681b      	ldr	r3, [r3, #0]
 8001486:	ee07 3a90 	vmov	s15, r3
 800148a:	eef8 7ae7 	vcvt.f32.s32	s15, s15
 800148e:	ee86 7aa7 	vdiv.f32	s14, s13, s15
 8001492:	4a97      	ldr	r2, [pc, #604]	; (80016f0 <buildFastMatrix+0x2e0>)
 8001494:	f8d7 31dc 	ldr.w	r3, [r7, #476]	; 0x1dc
 8001498:	2134      	movs	r1, #52	; 0x34
 800149a:	fb01 f303 	mul.w	r3, r1, r3
 800149e:	4413      	add	r3, r2
 80014a0:	3328      	adds	r3, #40	; 0x28
 80014a2:	681a      	ldr	r2, [r3, #0]
 80014a4:	4992      	ldr	r1, [pc, #584]	; (80016f0 <buildFastMatrix+0x2e0>)
 80014a6:	f8d7 31dc 	ldr.w	r3, [r7, #476]	; 0x1dc
 80014aa:	2034      	movs	r0, #52	; 0x34
 80014ac:	fb00 f303 	mul.w	r3, r0, r3
 80014b0:	440b      	add	r3, r1
 80014b2:	332c      	adds	r3, #44	; 0x2c
 80014b4:	681b      	ldr	r3, [r3, #0]
 80014b6:	fb92 f3f3 	sdiv	r3, r2, r3
 80014ba:	ee07 3a90 	vmov	s15, r3
 80014be:	eef8 7ae7 	vcvt.f32.s32	s15, s15
 80014c2:	ee77 7a67 	vsub.f32	s15, s14, s15
 80014c6:	eef5 7ac0 	vcmpe.f32	s15, #0.0
 80014ca:	eef1 fa10 	vmrs	APSR_nzcv, fpscr
 80014ce:	dd15      	ble.n	80014fc <buildFastMatrix+0xec>
 80014d0:	4a87      	ldr	r2, [pc, #540]	; (80016f0 <buildFastMatrix+0x2e0>)
 80014d2:	f8d7 31dc 	ldr.w	r3, [r7, #476]	; 0x1dc
 80014d6:	2134      	movs	r1, #52	; 0x34
 80014d8:	fb01 f303 	mul.w	r3, r1, r3
 80014dc:	4413      	add	r3, r2
 80014de:	3328      	adds	r3, #40	; 0x28
 80014e0:	681a      	ldr	r2, [r3, #0]
 80014e2:	4983      	ldr	r1, [pc, #524]	; (80016f0 <buildFastMatrix+0x2e0>)
 80014e4:	f8d7 31dc 	ldr.w	r3, [r7, #476]	; 0x1dc
 80014e8:	2034      	movs	r0, #52	; 0x34
 80014ea:	fb00 f303 	mul.w	r3, r0, r3
 80014ee:	440b      	add	r3, r1
 80014f0:	332c      	adds	r3, #44	; 0x2c
 80014f2:	681b      	ldr	r3, [r3, #0]
 80014f4:	fb92 f3f3 	sdiv	r3, r2, r3
 80014f8:	3301      	adds	r3, #1
 80014fa:	e013      	b.n	8001524 <buildFastMatrix+0x114>
 80014fc:	4a7c      	ldr	r2, [pc, #496]	; (80016f0 <buildFastMatrix+0x2e0>)
 80014fe:	f8d7 31dc 	ldr.w	r3, [r7, #476]	; 0x1dc
 8001502:	2134      	movs	r1, #52	; 0x34
 8001504:	fb01 f303 	mul.w	r3, r1, r3
 8001508:	4413      	add	r3, r2
 800150a:	3328      	adds	r3, #40	; 0x28
 800150c:	681a      	ldr	r2, [r3, #0]
 800150e:	4978      	ldr	r1, [pc, #480]	; (80016f0 <buildFastMatrix+0x2e0>)
 8001510:	f8d7 31dc 	ldr.w	r3, [r7, #476]	; 0x1dc
 8001514:	2034      	movs	r0, #52	; 0x34
 8001516:	fb00 f303 	mul.w	r3, r0, r3
 800151a:	440b      	add	r3, r1
 800151c:	332c      	adds	r3, #44	; 0x2c
 800151e:	681b      	ldr	r3, [r3, #0]
 8001520:	fb92 f3f3 	sdiv	r3, r2, r3
 8001524:	4972      	ldr	r1, [pc, #456]	; (80016f0 <buildFastMatrix+0x2e0>)
 8001526:	f8d7 21dc 	ldr.w	r2, [r7, #476]	; 0x1dc
 800152a:	2034      	movs	r0, #52	; 0x34
 800152c:	fb00 f202 	mul.w	r2, r0, r2
 8001530:	440a      	add	r2, r1
 8001532:	321c      	adds	r2, #28
 8001534:	6013      	str	r3, [r2, #0]
 8001536:	4a6e      	ldr	r2, [pc, #440]	; (80016f0 <buildFastMatrix+0x2e0>)
 8001538:	f8d7 31dc 	ldr.w	r3, [r7, #476]	; 0x1dc
 800153c:	2134      	movs	r1, #52	; 0x34
 800153e:	fb01 f303 	mul.w	r3, r1, r3
 8001542:	4413      	add	r3, r2
 8001544:	3318      	adds	r3, #24
 8001546:	681a      	ldr	r2, [r3, #0]
 8001548:	4b6a      	ldr	r3, [pc, #424]	; (80016f4 <buildFastMatrix+0x2e4>)
 800154a:	fb83 1302 	smull	r1, r3, r3, r2
 800154e:	1059      	asrs	r1, r3, #1
 8001550:	17d3      	asrs	r3, r2, #31
 8001552:	1ac9      	subs	r1, r1, r3
 8001554:	460b      	mov	r3, r1
 8001556:	009b      	lsls	r3, r3, #2
 8001558:	440b      	add	r3, r1
 800155a:	1ad3      	subs	r3, r2, r3
 800155c:	f8c7 318c 	str.w	r3, [r7, #396]	; 0x18c
 8001560:	f8d7 318c 	ldr.w	r3, [r7, #396]	; 0x18c
 8001564:	2b00      	cmp	r3, #0
 8001566:	dd15      	ble.n	8001594 <buildFastMatrix+0x184>
 8001568:	4a61      	ldr	r2, [pc, #388]	; (80016f0 <buildFastMatrix+0x2e0>)
 800156a:	f8d7 31dc 	ldr.w	r3, [r7, #476]	; 0x1dc
 800156e:	2134      	movs	r1, #52	; 0x34
 8001570:	fb01 f303 	mul.w	r3, r1, r3
 8001574:	4413      	add	r3, r2
 8001576:	3318      	adds	r3, #24
 8001578:	681b      	ldr	r3, [r3, #0]
 800157a:	1d5a      	adds	r2, r3, #5
 800157c:	f8d7 318c 	ldr.w	r3, [r7, #396]	; 0x18c
 8001580:	1ad2      	subs	r2, r2, r3
 8001582:	495b      	ldr	r1, [pc, #364]	; (80016f0 <buildFastMatrix+0x2e0>)
 8001584:	f8d7 31dc 	ldr.w	r3, [r7, #476]	; 0x1dc
 8001588:	2034      	movs	r0, #52	; 0x34
 800158a:	fb00 f303 	mul.w	r3, r0, r3
 800158e:	440b      	add	r3, r1
 8001590:	3318      	adds	r3, #24
 8001592:	601a      	str	r2, [r3, #0]
 8001594:	f8d7 31dc 	ldr.w	r3, [r7, #476]	; 0x1dc
 8001598:	3301      	adds	r3, #1
 800159a:	f8c7 31dc 	str.w	r3, [r7, #476]	; 0x1dc
 800159e:	f8d7 31dc 	ldr.w	r3, [r7, #476]	; 0x1dc
 80015a2:	2b04      	cmp	r3, #4
 80015a4:	f77f af3b 	ble.w	800141e <buildFastMatrix+0xe>
 80015a8:	4b51      	ldr	r3, [pc, #324]	; (80016f0 <buildFastMatrix+0x2e0>)
 80015aa:	699b      	ldr	r3, [r3, #24]
 80015ac:	4a50      	ldr	r2, [pc, #320]	; (80016f0 <buildFastMatrix+0x2e0>)
 80015ae:	6cd2      	ldr	r2, [r2, #76]	; 0x4c
 80015b0:	4611      	mov	r1, r2
 80015b2:	4618      	mov	r0, r3
 80015b4:	f7ff fc8a 	bl	8000ecc <gcd>
 80015b8:	4603      	mov	r3, r0
 80015ba:	f8c7 30ec 	str.w	r3, [r7, #236]	; 0xec
 80015be:	4b4c      	ldr	r3, [pc, #304]	; (80016f0 <buildFastMatrix+0x2e0>)
 80015c0:	699b      	ldr	r3, [r3, #24]
 80015c2:	4a4b      	ldr	r2, [pc, #300]	; (80016f0 <buildFastMatrix+0x2e0>)
 80015c4:	6cd2      	ldr	r2, [r2, #76]	; 0x4c
 80015c6:	4611      	mov	r1, r2
 80015c8:	4618      	mov	r0, r3
 80015ca:	f7ff ff01 	bl	80013d0 <lcm>
 80015ce:	4602      	mov	r2, r0
 80015d0:	f507 73f0 	add.w	r3, r7, #480	; 0x1e0
 80015d4:	f5a3 7382 	sub.w	r3, r3, #260	; 0x104
 80015d8:	601a      	str	r2, [r3, #0]
 80015da:	2300      	movs	r3, #0
 80015dc:	f8c7 31d8 	str.w	r3, [r7, #472]	; 0x1d8
 80015e0:	e042      	b.n	8001668 <buildFastMatrix+0x258>
 80015e2:	f8d7 31d8 	ldr.w	r3, [r7, #472]	; 0x1d8
 80015e6:	009b      	lsls	r3, r3, #2
 80015e8:	f503 73f0 	add.w	r3, r3, #480	; 0x1e0
 80015ec:	443b      	add	r3, r7
 80015ee:	f853 2cf4 	ldr.w	r2, [r3, #-244]
 80015f2:	f8d7 31d8 	ldr.w	r3, [r7, #472]	; 0x1d8
 80015f6:	3302      	adds	r3, #2
 80015f8:	493d      	ldr	r1, [pc, #244]	; (80016f0 <buildFastMatrix+0x2e0>)
 80015fa:	2034      	movs	r0, #52	; 0x34
 80015fc:	fb00 f303 	mul.w	r3, r0, r3
 8001600:	440b      	add	r3, r1
 8001602:	3318      	adds	r3, #24
 8001604:	6819      	ldr	r1, [r3, #0]
 8001606:	f8d7 31d8 	ldr.w	r3, [r7, #472]	; 0x1d8
 800160a:	1c5c      	adds	r4, r3, #1
 800160c:	4610      	mov	r0, r2
 800160e:	f7ff fc5d 	bl	8000ecc <gcd>
 8001612:	4602      	mov	r2, r0
 8001614:	00a3      	lsls	r3, r4, #2
 8001616:	f503 73f0 	add.w	r3, r3, #480	; 0x1e0
 800161a:	443b      	add	r3, r7
 800161c:	f843 2cf4 	str.w	r2, [r3, #-244]
 8001620:	f507 73f0 	add.w	r3, r7, #480	; 0x1e0
 8001624:	f5a3 7382 	sub.w	r3, r3, #260	; 0x104
 8001628:	f8d7 21d8 	ldr.w	r2, [r7, #472]	; 0x1d8
 800162c:	f853 2022 	ldr.w	r2, [r3, r2, lsl #2]
 8001630:	f8d7 31d8 	ldr.w	r3, [r7, #472]	; 0x1d8
 8001634:	3302      	adds	r3, #2
 8001636:	492e      	ldr	r1, [pc, #184]	; (80016f0 <buildFastMatrix+0x2e0>)
 8001638:	2034      	movs	r0, #52	; 0x34
 800163a:	fb00 f303 	mul.w	r3, r0, r3
 800163e:	440b      	add	r3, r1
 8001640:	3318      	adds	r3, #24
 8001642:	6819      	ldr	r1, [r3, #0]
 8001644:	f8d7 31d8 	ldr.w	r3, [r7, #472]	; 0x1d8
 8001648:	1c5c      	adds	r4, r3, #1
 800164a:	4610      	mov	r0, r2
 800164c:	f7ff fec0 	bl	80013d0 <lcm>
 8001650:	4602      	mov	r2, r0
 8001652:	f507 73f0 	add.w	r3, r7, #480	; 0x1e0
 8001656:	f5a3 7382 	sub.w	r3, r3, #260	; 0x104
 800165a:	f843 2024 	str.w	r2, [r3, r4, lsl #2]
 800165e:	f8d7 31d8 	ldr.w	r3, [r7, #472]	; 0x1d8
 8001662:	3301      	adds	r3, #1
 8001664:	f8c7 31d8 	str.w	r3, [r7, #472]	; 0x1d8
 8001668:	f8d7 31d8 	ldr.w	r3, [r7, #472]	; 0x1d8
 800166c:	2b02      	cmp	r3, #2
 800166e:	ddb8      	ble.n	80015e2 <buildFastMatrix+0x1d2>
 8001670:	f8d7 30f8 	ldr.w	r3, [r7, #248]	; 0xf8
 8001674:	461a      	mov	r2, r3
 8001676:	4b20      	ldr	r3, [pc, #128]	; (80016f8 <buildFastMatrix+0x2e8>)
 8001678:	601a      	str	r2, [r3, #0]
 800167a:	f507 73f0 	add.w	r3, r7, #480	; 0x1e0
 800167e:	f5a3 7382 	sub.w	r3, r3, #260	; 0x104
 8001682:	68db      	ldr	r3, [r3, #12]
 8001684:	461a      	mov	r2, r3
 8001686:	4b1d      	ldr	r3, [pc, #116]	; (80016fc <buildFastMatrix+0x2ec>)
 8001688:	601a      	str	r2, [r3, #0]
 800168a:	2300      	movs	r3, #0
 800168c:	f8c7 31d4 	str.w	r3, [r7, #468]	; 0x1d4
 8001690:	e01f      	b.n	80016d2 <buildFastMatrix+0x2c2>
 8001692:	f8d7 31d4 	ldr.w	r3, [r7, #468]	; 0x1d4
 8001696:	00db      	lsls	r3, r3, #3
 8001698:	f503 73f0 	add.w	r3, r3, #480	; 0x1e0
 800169c:	443b      	add	r3, r7
 800169e:	f8d7 21d4 	ldr.w	r2, [r7, #468]	; 0x1d4
 80016a2:	f843 2ca4 	str.w	r2, [r3, #-164]
 80016a6:	4a12      	ldr	r2, [pc, #72]	; (80016f0 <buildFastMatrix+0x2e0>)
 80016a8:	f8d7 31d4 	ldr.w	r3, [r7, #468]	; 0x1d4
 80016ac:	2134      	movs	r1, #52	; 0x34
 80016ae:	fb01 f303 	mul.w	r3, r1, r3
 80016b2:	4413      	add	r3, r2
 80016b4:	331c      	adds	r3, #28
 80016b6:	681a      	ldr	r2, [r3, #0]
 80016b8:	f8d7 31d4 	ldr.w	r3, [r7, #468]	; 0x1d4
 80016bc:	00db      	lsls	r3, r3, #3
 80016be:	f503 73f0 	add.w	r3, r3, #480	; 0x1e0
 80016c2:	443b      	add	r3, r7
 80016c4:	f843 2ca8 	str.w	r2, [r3, #-168]
 80016c8:	f8d7 31d4 	ldr.w	r3, [r7, #468]	; 0x1d4
 80016cc:	3301      	adds	r3, #1
 80016ce:	f8c7 31d4 	str.w	r3, [r7, #468]	; 0x1d4
 80016d2:	f8d7 31d4 	ldr.w	r3, [r7, #468]	; 0x1d4
 80016d6:	2b04      	cmp	r3, #4
 80016d8:	dddb      	ble.n	8001692 <buildFastMatrix+0x282>
 80016da:	2305      	movs	r3, #5
 80016dc:	f8c7 31d0 	str.w	r3, [r7, #464]	; 0x1d0
 80016e0:	e066      	b.n	80017b0 <buildFastMatrix+0x3a0>
 80016e2:	2300      	movs	r3, #0
 80016e4:	f8c7 31cc 	str.w	r3, [r7, #460]	; 0x1cc
 80016e8:	2300      	movs	r3, #0
 80016ea:	f8c7 31c8 	str.w	r3, [r7, #456]	; 0x1c8
 80016ee:	e022      	b.n	8001736 <buildFastMatrix+0x326>
 80016f0:	20000b84 	andcs	r0, r0, r4, lsl #23
 80016f4:	66666667 	strbtvs	r6, [r6], -r7, ror #12
 80016f8:	20000004 	andcs	r0, r0, r4
 80016fc:	20000000 	andcs	r0, r0, r0
 8001700:	f8d7 31c8 	ldr.w	r3, [r7, #456]	; 0x1c8
 8001704:	00db      	lsls	r3, r3, #3
 8001706:	f503 73f0 	add.w	r3, r3, #480	; 0x1e0
 800170a:	443b      	add	r3, r7
 800170c:	f853 2ca8 	ldr.w	r2, [r3, #-168]
 8001710:	f8d7 31cc 	ldr.w	r3, [r7, #460]	; 0x1cc
 8001714:	00db      	lsls	r3, r3, #3
 8001716:	f503 73f0 	add.w	r3, r3, #480	; 0x1e0
 800171a:	443b      	add	r3, r7
 800171c:	f853 3ca8 	ldr.w	r3, [r3, #-168]
 8001720:	429a      	cmp	r2, r3
 8001722:	dd03      	ble.n	800172c <buildFastMatrix+0x31c>
 8001724:	f8d7 31c8 	ldr.w	r3, [r7, #456]	; 0x1c8
 8001728:	f8c7 31cc 	str.w	r3, [r7, #460]	; 0x1cc
 800172c:	f8d7 31c8 	ldr.w	r3, [r7, #456]	; 0x1c8
 8001730:	3301      	adds	r3, #1
 8001732:	f8c7 31c8 	str.w	r3, [r7, #456]	; 0x1c8
 8001736:	f8d7 21c8 	ldr.w	r2, [r7, #456]	; 0x1c8
 800173a:	f8d7 31d0 	ldr.w	r3, [r7, #464]	; 0x1d0
 800173e:	429a      	cmp	r2, r3
 8001740:	dbde      	blt.n	8001700 <buildFastMatrix+0x2f0>
 8001742:	f8d7 31d0 	ldr.w	r3, [r7, #464]	; 0x1d0
 8001746:	3b01      	subs	r3, #1
 8001748:	f507 72f0 	add.w	r2, r7, #480	; 0x1e0
 800174c:	f5a2 7286 	sub.w	r2, r2, #268	; 0x10c
 8001750:	00db      	lsls	r3, r3, #3
 8001752:	f503 73f0 	add.w	r3, r3, #480	; 0x1e0
 8001756:	443b      	add	r3, r7
 8001758:	3ba8      	subs	r3, #168	; 0xa8
 800175a:	e893 0003 	ldmia.w	r3, {r0, r1}
 800175e:	e882 0003 	stmia.w	r2, {r0, r1}
 8001762:	f8d7 31d0 	ldr.w	r3, [r7, #464]	; 0x1d0
 8001766:	3b01      	subs	r3, #1
 8001768:	00da      	lsls	r2, r3, #3
 800176a:	f502 73f0 	add.w	r3, r2, #480	; 0x1e0
 800176e:	19da      	adds	r2, r3, r7
 8001770:	f8d7 31cc 	ldr.w	r3, [r7, #460]	; 0x1cc
 8001774:	00db      	lsls	r3, r3, #3
 8001776:	f503 73f0 	add.w	r3, r3, #480	; 0x1e0
 800177a:	443b      	add	r3, r7
 800177c:	3aa8      	subs	r2, #168	; 0xa8
 800177e:	3ba8      	subs	r3, #168	; 0xa8
 8001780:	e893 0003 	ldmia.w	r3, {r0, r1}
 8001784:	e882 0003 	stmia.w	r2, {r0, r1}
 8001788:	f8d7 31cc 	ldr.w	r3, [r7, #460]	; 0x1cc
 800178c:	00db      	lsls	r3, r3, #3
 800178e:	f503 73f0 	add.w	r3, r3, #480	; 0x1e0
 8001792:	443b      	add	r3, r7
 8001794:	f507 72f0 	add.w	r2, r7, #480	; 0x1e0
 8001798:	f5a2 7286 	sub.w	r2, r2, #268	; 0x10c
 800179c:	3ba8      	subs	r3, #168	; 0xa8
 800179e:	e892 0003 	ldmia.w	r2, {r0, r1}
 80017a2:	e883 0003 	stmia.w	r3, {r0, r1}
 80017a6:	f8d7 31d0 	ldr.w	r3, [r7, #464]	; 0x1d0
 80017aa:	3b01      	subs	r3, #1
 80017ac:	f8c7 31d0 	str.w	r3, [r7, #464]	; 0x1d0
 80017b0:	f8d7 31d0 	ldr.w	r3, [r7, #464]	; 0x1d0
 80017b4:	2b01      	cmp	r3, #1
 80017b6:	dc94      	bgt.n	80016e2 <buildFastMatrix+0x2d2>
 80017b8:	f8d7 3158 	ldr.w	r3, [r7, #344]	; 0x158
 80017bc:	461a      	mov	r2, r3
 80017be:	4ba7      	ldr	r3, [pc, #668]	; (8001a5c <buildFastMatrix+0x64c>)
 80017c0:	681b      	ldr	r3, [r3, #0]
 80017c2:	429a      	cmp	r2, r3
 80017c4:	d91c      	bls.n	8001800 <buildFastMatrix+0x3f0>
 80017c6:	f8d7 3158 	ldr.w	r3, [r7, #344]	; 0x158
 80017ca:	461a      	mov	r2, r3
 80017cc:	4ba3      	ldr	r3, [pc, #652]	; (8001a5c <buildFastMatrix+0x64c>)
 80017ce:	601a      	str	r2, [r3, #0]
 80017d0:	4ba2      	ldr	r3, [pc, #648]	; (8001a5c <buildFastMatrix+0x64c>)
 80017d2:	6819      	ldr	r1, [r3, #0]
 80017d4:	4ba2      	ldr	r3, [pc, #648]	; (8001a60 <buildFastMatrix+0x650>)
 80017d6:	fba3 2301 	umull	r2, r3, r3, r1
 80017da:	089a      	lsrs	r2, r3, #2
 80017dc:	4613      	mov	r3, r2
 80017de:	009b      	lsls	r3, r3, #2
 80017e0:	4413      	add	r3, r2
 80017e2:	1aca      	subs	r2, r1, r3
 80017e4:	f8c7 2194 	str.w	r2, [r7, #404]	; 0x194
 80017e8:	f8d7 3194 	ldr.w	r3, [r7, #404]	; 0x194
 80017ec:	2b00      	cmp	r3, #0
 80017ee:	dd07      	ble.n	8001800 <buildFastMatrix+0x3f0>
 80017f0:	4b9a      	ldr	r3, [pc, #616]	; (8001a5c <buildFastMatrix+0x64c>)
 80017f2:	681a      	ldr	r2, [r3, #0]
 80017f4:	f8d7 3194 	ldr.w	r3, [r7, #404]	; 0x194
 80017f8:	1ad3      	subs	r3, r2, r3
 80017fa:	3305      	adds	r3, #5
 80017fc:	4a97      	ldr	r2, [pc, #604]	; (8001a5c <buildFastMatrix+0x64c>)
 80017fe:	6013      	str	r3, [r2, #0]
 8001800:	2300      	movs	r3, #0
 8001802:	f8c7 31c4 	str.w	r3, [r7, #452]	; 0x1c4
 8001806:	e01f      	b.n	8001848 <buildFastMatrix+0x438>
 8001808:	f8d7 31c4 	ldr.w	r3, [r7, #452]	; 0x1c4
 800180c:	00db      	lsls	r3, r3, #3
 800180e:	f503 73f0 	add.w	r3, r3, #480	; 0x1e0
 8001812:	443b      	add	r3, r7
 8001814:	f8d7 21c4 	ldr.w	r2, [r7, #452]	; 0x1c4
 8001818:	f843 2ccc 	str.w	r2, [r3, #-204]
 800181c:	4a91      	ldr	r2, [pc, #580]	; (8001a64 <buildFastMatrix+0x654>)
 800181e:	f8d7 31c4 	ldr.w	r3, [r7, #452]	; 0x1c4
 8001822:	2134      	movs	r1, #52	; 0x34
 8001824:	fb01 f303 	mul.w	r3, r1, r3
 8001828:	4413      	add	r3, r2
 800182a:	3318      	adds	r3, #24
 800182c:	681a      	ldr	r2, [r3, #0]
 800182e:	f8d7 31c4 	ldr.w	r3, [r7, #452]	; 0x1c4
 8001832:	00db      	lsls	r3, r3, #3
 8001834:	f503 73f0 	add.w	r3, r3, #480	; 0x1e0
 8001838:	443b      	add	r3, r7
 800183a:	f843 2cd0 	str.w	r2, [r3, #-208]
 800183e:	f8d7 31c4 	ldr.w	r3, [r7, #452]	; 0x1c4
 8001842:	3301      	adds	r3, #1
 8001844:	f8c7 31c4 	str.w	r3, [r7, #452]	; 0x1c4
 8001848:	f8d7 31c4 	ldr.w	r3, [r7, #452]	; 0x1c4
 800184c:	2b04      	cmp	r3, #4
 800184e:	dddb      	ble.n	8001808 <buildFastMatrix+0x3f8>
 8001850:	2305      	movs	r3, #5
 8001852:	f8c7 31c0 	str.w	r3, [r7, #448]	; 0x1c0
 8001856:	e05e      	b.n	8001916 <buildFastMatrix+0x506>
 8001858:	2300      	movs	r3, #0
 800185a:	f8c7 31bc 	str.w	r3, [r7, #444]	; 0x1bc
 800185e:	2300      	movs	r3, #0
 8001860:	f8c7 31b8 	str.w	r3, [r7, #440]	; 0x1b8
 8001864:	e01a      	b.n	800189c <buildFastMatrix+0x48c>
 8001866:	f8d7 31b8 	ldr.w	r3, [r7, #440]	; 0x1b8
 800186a:	00db      	lsls	r3, r3, #3
 800186c:	f503 73f0 	add.w	r3, r3, #480	; 0x1e0
 8001870:	443b      	add	r3, r7
 8001872:	f853 2cd0 	ldr.w	r2, [r3, #-208]
 8001876:	f8d7 31bc 	ldr.w	r3, [r7, #444]	; 0x1bc
 800187a:	00db      	lsls	r3, r3, #3
 800187c:	f503 73f0 	add.w	r3, r3, #480	; 0x1e0
 8001880:	443b      	add	r3, r7
 8001882:	f853 3cd0 	ldr.w	r3, [r3, #-208]
 8001886:	429a      	cmp	r2, r3
 8001888:	dd03      	ble.n	8001892 <buildFastMatrix+0x482>
 800188a:	f8d7 31b8 	ldr.w	r3, [r7, #440]	; 0x1b8
 800188e:	f8c7 31bc 	str.w	r3, [r7, #444]	; 0x1bc
 8001892:	f8d7 31b8 	ldr.w	r3, [r7, #440]	; 0x1b8
 8001896:	3301      	adds	r3, #1
 8001898:	f8c7 31b8 	str.w	r3, [r7, #440]	; 0x1b8
 800189c:	f8d7 21b8 	ldr.w	r2, [r7, #440]	; 0x1b8
 80018a0:	f8d7 31c0 	ldr.w	r3, [r7, #448]	; 0x1c0
 80018a4:	429a      	cmp	r2, r3
 80018a6:	dbde      	blt.n	8001866 <buildFastMatrix+0x456>
 80018a8:	f8d7 31c0 	ldr.w	r3, [r7, #448]	; 0x1c0
 80018ac:	3b01      	subs	r3, #1
 80018ae:	f507 72f0 	add.w	r2, r7, #480	; 0x1e0
 80018b2:	f5a2 728a 	sub.w	r2, r2, #276	; 0x114
 80018b6:	00db      	lsls	r3, r3, #3
 80018b8:	f503 73f0 	add.w	r3, r3, #480	; 0x1e0
 80018bc:	443b      	add	r3, r7
 80018be:	3bd0      	subs	r3, #208	; 0xd0
 80018c0:	e893 0003 	ldmia.w	r3, {r0, r1}
 80018c4:	e882 0003 	stmia.w	r2, {r0, r1}
 80018c8:	f8d7 31c0 	ldr.w	r3, [r7, #448]	; 0x1c0
 80018cc:	3b01      	subs	r3, #1
 80018ce:	00da      	lsls	r2, r3, #3
 80018d0:	f502 73f0 	add.w	r3, r2, #480	; 0x1e0
 80018d4:	19da      	adds	r2, r3, r7
 80018d6:	f8d7 31bc 	ldr.w	r3, [r7, #444]	; 0x1bc
 80018da:	00db      	lsls	r3, r3, #3
 80018dc:	f503 73f0 	add.w	r3, r3, #480	; 0x1e0
 80018e0:	443b      	add	r3, r7
 80018e2:	3ad0      	subs	r2, #208	; 0xd0
 80018e4:	3bd0      	subs	r3, #208	; 0xd0
 80018e6:	e893 0003 	ldmia.w	r3, {r0, r1}
 80018ea:	e882 0003 	stmia.w	r2, {r0, r1}
 80018ee:	f8d7 31bc 	ldr.w	r3, [r7, #444]	; 0x1bc
 80018f2:	00db      	lsls	r3, r3, #3
 80018f4:	f503 73f0 	add.w	r3, r3, #480	; 0x1e0
 80018f8:	443b      	add	r3, r7
 80018fa:	f507 72f0 	add.w	r2, r7, #480	; 0x1e0
 80018fe:	f5a2 728a 	sub.w	r2, r2, #276	; 0x114
 8001902:	3bd0      	subs	r3, #208	; 0xd0
 8001904:	e892 0003 	ldmia.w	r2, {r0, r1}
 8001908:	e883 0003 	stmia.w	r3, {r0, r1}
 800190c:	f8d7 31c0 	ldr.w	r3, [r7, #448]	; 0x1c0
 8001910:	3b01      	subs	r3, #1
 8001912:	f8c7 31c0 	str.w	r3, [r7, #448]	; 0x1c0
 8001916:	f8d7 31c0 	ldr.w	r3, [r7, #448]	; 0x1c0
 800191a:	2b01      	cmp	r3, #1
 800191c:	dc9c      	bgt.n	8001858 <buildFastMatrix+0x448>
 800191e:	4b52      	ldr	r3, [pc, #328]	; (8001a68 <buildFastMatrix+0x658>)
 8001920:	681b      	ldr	r3, [r3, #0]
 8001922:	ee07 3a90 	vmov	s15, r3
 8001926:	eef8 6a67 	vcvt.f32.u32	s13, s15
 800192a:	4b4c      	ldr	r3, [pc, #304]	; (8001a5c <buildFastMatrix+0x64c>)
 800192c:	681b      	ldr	r3, [r3, #0]
 800192e:	ee07 3a90 	vmov	s15, r3
 8001932:	eef8 7a67 	vcvt.f32.u32	s15, s15
 8001936:	ee86 7aa7 	vdiv.f32	s14, s13, s15
 800193a:	4b4b      	ldr	r3, [pc, #300]	; (8001a68 <buildFastMatrix+0x658>)
 800193c:	681a      	ldr	r2, [r3, #0]
 800193e:	4b47      	ldr	r3, [pc, #284]	; (8001a5c <buildFastMatrix+0x64c>)
 8001940:	681b      	ldr	r3, [r3, #0]
 8001942:	fbb2 f3f3 	udiv	r3, r2, r3
 8001946:	ee07 3a90 	vmov	s15, r3
 800194a:	eef8 7ae7 	vcvt.f32.s32	s15, s15
 800194e:	ee77 7a67 	vsub.f32	s15, s14, s15
 8001952:	eef5 7ac0 	vcmpe.f32	s15, #0.0
 8001956:	eef1 fa10 	vmrs	APSR_nzcv, fpscr
 800195a:	dd07      	ble.n	800196c <buildFastMatrix+0x55c>
 800195c:	4b42      	ldr	r3, [pc, #264]	; (8001a68 <buildFastMatrix+0x658>)
 800195e:	681a      	ldr	r2, [r3, #0]
 8001960:	4b3e      	ldr	r3, [pc, #248]	; (8001a5c <buildFastMatrix+0x64c>)
 8001962:	681b      	ldr	r3, [r3, #0]
 8001964:	fbb2 f3f3 	udiv	r3, r2, r3
 8001968:	3301      	adds	r3, #1
 800196a:	e005      	b.n	8001978 <buildFastMatrix+0x568>
 800196c:	4b3e      	ldr	r3, [pc, #248]	; (8001a68 <buildFastMatrix+0x658>)
 800196e:	681a      	ldr	r2, [r3, #0]
 8001970:	4b3a      	ldr	r3, [pc, #232]	; (8001a5c <buildFastMatrix+0x64c>)
 8001972:	681b      	ldr	r3, [r3, #0]
 8001974:	fbb2 f3f3 	udiv	r3, r2, r3
 8001978:	4a3c      	ldr	r2, [pc, #240]	; (8001a6c <buildFastMatrix+0x65c>)
 800197a:	6013      	str	r3, [r2, #0]
 800197c:	2300      	movs	r3, #0
 800197e:	f8c7 31b4 	str.w	r3, [r7, #436]	; 0x1b4
 8001982:	4b3a      	ldr	r3, [pc, #232]	; (8001a6c <buildFastMatrix+0x65c>)
 8001984:	681b      	ldr	r3, [r3, #0]
 8001986:	2bc8      	cmp	r3, #200	; 0xc8
 8001988:	d92f      	bls.n	80019ea <buildFastMatrix+0x5da>
 800198a:	4b38      	ldr	r3, [pc, #224]	; (8001a6c <buildFastMatrix+0x65c>)
 800198c:	22c8      	movs	r2, #200	; 0xc8
 800198e:	601a      	str	r2, [r3, #0]
 8001990:	4b35      	ldr	r3, [pc, #212]	; (8001a68 <buildFastMatrix+0x658>)
 8001992:	681a      	ldr	r2, [r3, #0]
 8001994:	4b35      	ldr	r3, [pc, #212]	; (8001a6c <buildFastMatrix+0x65c>)
 8001996:	681b      	ldr	r3, [r3, #0]
 8001998:	fbb2 f3f3 	udiv	r3, r2, r3
 800199c:	4a2f      	ldr	r2, [pc, #188]	; (8001a5c <buildFastMatrix+0x64c>)
 800199e:	6013      	str	r3, [r2, #0]
 80019a0:	4b2e      	ldr	r3, [pc, #184]	; (8001a5c <buildFastMatrix+0x64c>)
 80019a2:	681b      	ldr	r3, [r3, #0]
 80019a4:	4a31      	ldr	r2, [pc, #196]	; (8001a6c <buildFastMatrix+0x65c>)
 80019a6:	6812      	ldr	r2, [r2, #0]
 80019a8:	fb03 f202 	mul.w	r2, r3, r2
 80019ac:	4b2e      	ldr	r3, [pc, #184]	; (8001a68 <buildFastMatrix+0x658>)
 80019ae:	681b      	ldr	r3, [r3, #0]
 80019b0:	429a      	cmp	r2, r3
 80019b2:	d007      	beq.n	80019c4 <buildFastMatrix+0x5b4>
 80019b4:	4b2d      	ldr	r3, [pc, #180]	; (8001a6c <buildFastMatrix+0x65c>)
 80019b6:	681b      	ldr	r3, [r3, #0]
 80019b8:	3301      	adds	r3, #1
 80019ba:	4a2c      	ldr	r2, [pc, #176]	; (8001a6c <buildFastMatrix+0x65c>)
 80019bc:	6013      	str	r3, [r2, #0]
 80019be:	2301      	movs	r3, #1
 80019c0:	f8c7 31b4 	str.w	r3, [r7, #436]	; 0x1b4
 80019c4:	4b29      	ldr	r3, [pc, #164]	; (8001a6c <buildFastMatrix+0x65c>)
 80019c6:	681a      	ldr	r2, [r3, #0]
 80019c8:	1d38      	adds	r0, r7, #4
 80019ca:	23c8      	movs	r3, #200	; 0xc8
 80019cc:	4928      	ldr	r1, [pc, #160]	; (8001a70 <buildFastMatrix+0x660>)
 80019ce:	f00c fb99 	bl	800e104 <siprintf>
 80019d2:	1d3b      	adds	r3, r7, #4
 80019d4:	4618      	mov	r0, r3
 80019d6:	f7fe fc05 	bl	80001e4 <strlen>
 80019da:	4603      	mov	r3, r0
 80019dc:	b29a      	uxth	r2, r3
 80019de:	1d39      	adds	r1, r7, #4
 80019e0:	f64f 73ff 	movw	r3, #65535	; 0xffff
 80019e4:	4823      	ldr	r0, [pc, #140]	; (8001a74 <buildFastMatrix+0x664>)
 80019e6:	f007 fd8f 	bl	8009508 <HAL_UART_Transmit>
 80019ea:	2300      	movs	r3, #0
 80019ec:	f8c7 31b0 	str.w	r3, [r7, #432]	; 0x1b0
 80019f0:	e026      	b.n	8001a40 <buildFastMatrix+0x630>
 80019f2:	f8d7 31b0 	ldr.w	r3, [r7, #432]	; 0x1b0
 80019f6:	00db      	lsls	r3, r3, #3
 80019f8:	f503 73f0 	add.w	r3, r3, #480	; 0x1e0
 80019fc:	443b      	add	r3, r7
 80019fe:	f853 2ca4 	ldr.w	r2, [r3, #-164]
 8001a02:	f8d7 31b0 	ldr.w	r3, [r7, #432]	; 0x1b0
 8001a06:	009b      	lsls	r3, r3, #2
 8001a08:	f503 73f0 	add.w	r3, r3, #480	; 0x1e0
 8001a0c:	443b      	add	r3, r7
 8001a0e:	f843 2c6c 	str.w	r2, [r3, #-108]
 8001a12:	f8d7 31b0 	ldr.w	r3, [r7, #432]	; 0x1b0
 8001a16:	009b      	lsls	r3, r3, #2
 8001a18:	f503 73f0 	add.w	r3, r3, #480	; 0x1e0
 8001a1c:	443b      	add	r3, r7
 8001a1e:	2200      	movs	r2, #0
 8001a20:	f843 2c80 	str.w	r2, [r3, #-128]
 8001a24:	f8d7 31b0 	ldr.w	r3, [r7, #432]	; 0x1b0
 8001a28:	009b      	lsls	r3, r3, #2
 8001a2a:	f503 73f0 	add.w	r3, r3, #480	; 0x1e0
 8001a2e:	443b      	add	r3, r7
 8001a30:	2201      	movs	r2, #1
 8001a32:	f843 2ce4 	str.w	r2, [r3, #-228]
 8001a36:	f8d7 31b0 	ldr.w	r3, [r7, #432]	; 0x1b0
 8001a3a:	3301      	adds	r3, #1
 8001a3c:	f8c7 31b0 	str.w	r3, [r7, #432]	; 0x1b0
 8001a40:	f8d7 31b0 	ldr.w	r3, [r7, #432]	; 0x1b0
 8001a44:	2b04      	cmp	r3, #4
 8001a46:	ddd4      	ble.n	80019f2 <buildFastMatrix+0x5e2>
 8001a48:	2300      	movs	r3, #0
 8001a4a:	f8c7 31ac 	str.w	r3, [r7, #428]	; 0x1ac
 8001a4e:	2305      	movs	r3, #5
 8001a50:	f8c7 31a8 	str.w	r3, [r7, #424]	; 0x1a8
 8001a54:	2300      	movs	r3, #0
 8001a56:	f8c7 31a4 	str.w	r3, [r7, #420]	; 0x1a4
 8001a5a:	e126      	b.n	8001caa <buildFastMatrix+0x89a>
 8001a5c:	20000004 	andcs	r0, r0, r4
 8001a60:	cccccccd 	stclgt	12, cr12, [ip], {205}	; 0xcd
 8001a64:	20000b84 	andcs	r0, r0, r4, lsl #23
 8001a68:	20000000 	andcs	r0, r0, r0
 8001a6c:	20000008 	andcs	r0, r0, r8
 8001a70:	080105e8 	stmdaeq	r1, {r3, r5, r6, r7, r8, sl}
 8001a74:	200033a0 	andcs	r3, r0, r0, lsr #7
 8001a78:	4b9a      	ldr	r3, [pc, #616]	; (8001ce4 <buildFastMatrix+0x8d4>)
 8001a7a:	681b      	ldr	r3, [r3, #0]
 8001a7c:	f8c7 31a0 	str.w	r3, [r7, #416]	; 0x1a0
 8001a80:	2300      	movs	r3, #0
 8001a82:	f8c7 319c 	str.w	r3, [r7, #412]	; 0x19c
 8001a86:	4998      	ldr	r1, [pc, #608]	; (8001ce8 <buildFastMatrix+0x8d8>)
 8001a88:	f8d7 21a4 	ldr.w	r2, [r7, #420]	; 0x1a4
 8001a8c:	4613      	mov	r3, r2
 8001a8e:	005b      	lsls	r3, r3, #1
 8001a90:	4413      	add	r3, r2
 8001a92:	011b      	lsls	r3, r3, #4
 8001a94:	440b      	add	r3, r1
 8001a96:	f8d7 21a4 	ldr.w	r2, [r7, #420]	; 0x1a4
 8001a9a:	601a      	str	r2, [r3, #0]
 8001a9c:	f8d7 21ac 	ldr.w	r2, [r7, #428]	; 0x1ac
 8001aa0:	f8d7 31a8 	ldr.w	r3, [r7, #424]	; 0x1a8
 8001aa4:	429a      	cmp	r2, r3
 8001aa6:	d06f      	beq.n	8001b88 <buildFastMatrix+0x778>
 8001aa8:	f8d7 11ac 	ldr.w	r1, [r7, #428]	; 0x1ac
 8001aac:	4b8f      	ldr	r3, [pc, #572]	; (8001cec <buildFastMatrix+0x8dc>)
 8001aae:	fb83 3201 	smull	r3, r2, r3, r1
 8001ab2:	17cb      	asrs	r3, r1, #31
 8001ab4:	1ad2      	subs	r2, r2, r3
 8001ab6:	4613      	mov	r3, r2
 8001ab8:	005b      	lsls	r3, r3, #1
 8001aba:	4413      	add	r3, r2
 8001abc:	005b      	lsls	r3, r3, #1
 8001abe:	1aca      	subs	r2, r1, r3
 8001ac0:	0093      	lsls	r3, r2, #2
 8001ac2:	f503 73f0 	add.w	r3, r3, #480	; 0x1e0
 8001ac6:	443b      	add	r3, r7
 8001ac8:	f853 3c6c 	ldr.w	r3, [r3, #-108]
 8001acc:	f8c7 3190 	str.w	r3, [r7, #400]	; 0x190
 8001ad0:	4a87      	ldr	r2, [pc, #540]	; (8001cf0 <buildFastMatrix+0x8e0>)
 8001ad2:	f8d7 3190 	ldr.w	r3, [r7, #400]	; 0x190
 8001ad6:	2134      	movs	r1, #52	; 0x34
 8001ad8:	fb01 f303 	mul.w	r3, r1, r3
 8001adc:	4413      	add	r3, r2
 8001ade:	331c      	adds	r3, #28
 8001ae0:	681b      	ldr	r3, [r3, #0]
 8001ae2:	f8d7 21a0 	ldr.w	r2, [r7, #416]	; 0x1a0
 8001ae6:	1ad3      	subs	r3, r2, r3
 8001ae8:	f8c7 31a0 	str.w	r3, [r7, #416]	; 0x1a0
 8001aec:	f8d7 31a0 	ldr.w	r3, [r7, #416]	; 0x1a0
 8001af0:	2b00      	cmp	r3, #0
 8001af2:	db4b      	blt.n	8001b8c <buildFastMatrix+0x77c>
 8001af4:	f8d7 31ac 	ldr.w	r3, [r7, #428]	; 0x1ac
 8001af8:	3301      	adds	r3, #1
 8001afa:	f8c7 31ac 	str.w	r3, [r7, #428]	; 0x1ac
 8001afe:	4a7c      	ldr	r2, [pc, #496]	; (8001cf0 <buildFastMatrix+0x8e0>)
 8001b00:	f8d7 3190 	ldr.w	r3, [r7, #400]	; 0x190
 8001b04:	2134      	movs	r1, #52	; 0x34
 8001b06:	fb01 f303 	mul.w	r3, r1, r3
 8001b0a:	4413      	add	r3, r2
 8001b0c:	3318      	adds	r3, #24
 8001b0e:	681a      	ldr	r2, [r3, #0]
 8001b10:	f8d7 3190 	ldr.w	r3, [r7, #400]	; 0x190
 8001b14:	009b      	lsls	r3, r3, #2
 8001b16:	f503 73f0 	add.w	r3, r3, #480	; 0x1e0
 8001b1a:	443b      	add	r3, r7
 8001b1c:	f843 2c80 	str.w	r2, [r3, #-128]
 8001b20:	f8d7 3190 	ldr.w	r3, [r7, #400]	; 0x190
 8001b24:	009b      	lsls	r3, r3, #2
 8001b26:	f503 73f0 	add.w	r3, r3, #480	; 0x1e0
 8001b2a:	443b      	add	r3, r7
 8001b2c:	2200      	movs	r2, #0
 8001b2e:	f843 2ce4 	str.w	r2, [r3, #-228]
 8001b32:	496d      	ldr	r1, [pc, #436]	; (8001ce8 <buildFastMatrix+0x8d8>)
 8001b34:	f8d7 21a4 	ldr.w	r2, [r7, #420]	; 0x1a4
 8001b38:	4613      	mov	r3, r2
 8001b3a:	005b      	lsls	r3, r3, #1
 8001b3c:	4413      	add	r3, r2
 8001b3e:	009b      	lsls	r3, r3, #2
 8001b40:	f8d7 219c 	ldr.w	r2, [r7, #412]	; 0x19c
 8001b44:	4413      	add	r3, r2
 8001b46:	009b      	lsls	r3, r3, #2
 8001b48:	440b      	add	r3, r1
 8001b4a:	f8d7 2190 	ldr.w	r2, [r7, #400]	; 0x190
 8001b4e:	605a      	str	r2, [r3, #4]
 8001b50:	4a67      	ldr	r2, [pc, #412]	; (8001cf0 <buildFastMatrix+0x8e0>)
 8001b52:	f8d7 3190 	ldr.w	r3, [r7, #400]	; 0x190
 8001b56:	2134      	movs	r1, #52	; 0x34
 8001b58:	fb01 f303 	mul.w	r3, r1, r3
 8001b5c:	4413      	add	r3, r2
 8001b5e:	3314      	adds	r3, #20
 8001b60:	6819      	ldr	r1, [r3, #0]
 8001b62:	4861      	ldr	r0, [pc, #388]	; (8001ce8 <buildFastMatrix+0x8d8>)
 8001b64:	f8d7 21a4 	ldr.w	r2, [r7, #420]	; 0x1a4
 8001b68:	4613      	mov	r3, r2
 8001b6a:	005b      	lsls	r3, r3, #1
 8001b6c:	4413      	add	r3, r2
 8001b6e:	009b      	lsls	r3, r3, #2
 8001b70:	f8d7 219c 	ldr.w	r2, [r7, #412]	; 0x19c
 8001b74:	4413      	add	r3, r2
 8001b76:	3306      	adds	r3, #6
 8001b78:	f840 1023 	str.w	r1, [r0, r3, lsl #2]
 8001b7c:	f8d7 319c 	ldr.w	r3, [r7, #412]	; 0x19c
 8001b80:	3301      	adds	r3, #1
 8001b82:	f8c7 319c 	str.w	r3, [r7, #412]	; 0x19c
 8001b86:	e789      	b.n	8001a9c <buildFastMatrix+0x68c>
 8001b88:	bf00      	nop
 8001b8a:	e000      	b.n	8001b8e <buildFastMatrix+0x77e>
 8001b8c:	bf00      	nop
 8001b8e:	2300      	movs	r3, #0
 8001b90:	f8c7 3198 	str.w	r3, [r7, #408]	; 0x198
 8001b94:	e074      	b.n	8001c80 <buildFastMatrix+0x870>
 8001b96:	f8d7 3198 	ldr.w	r3, [r7, #408]	; 0x198
 8001b9a:	00db      	lsls	r3, r3, #3
 8001b9c:	f503 73f0 	add.w	r3, r3, #480	; 0x1e0
 8001ba0:	443b      	add	r3, r7
 8001ba2:	f853 3ccc 	ldr.w	r3, [r3, #-204]
 8001ba6:	009b      	lsls	r3, r3, #2
 8001ba8:	f503 73f0 	add.w	r3, r3, #480	; 0x1e0
 8001bac:	443b      	add	r3, r7
 8001bae:	f853 3ce4 	ldr.w	r3, [r3, #-228]
 8001bb2:	2b01      	cmp	r3, #1
 8001bb4:	d05e      	beq.n	8001c74 <buildFastMatrix+0x864>
 8001bb6:	f8d7 3198 	ldr.w	r3, [r7, #408]	; 0x198
 8001bba:	00db      	lsls	r3, r3, #3
 8001bbc:	f503 73f0 	add.w	r3, r3, #480	; 0x1e0
 8001bc0:	443b      	add	r3, r7
 8001bc2:	f853 3ccc 	ldr.w	r3, [r3, #-204]
 8001bc6:	009b      	lsls	r3, r3, #2
 8001bc8:	f503 73f0 	add.w	r3, r3, #480	; 0x1e0
 8001bcc:	443b      	add	r3, r7
 8001bce:	f853 3c80 	ldr.w	r3, [r3, #-128]
 8001bd2:	461a      	mov	r2, r3
 8001bd4:	4b43      	ldr	r3, [pc, #268]	; (8001ce4 <buildFastMatrix+0x8d4>)
 8001bd6:	681b      	ldr	r3, [r3, #0]
 8001bd8:	1ad2      	subs	r2, r2, r3
 8001bda:	f8d7 3198 	ldr.w	r3, [r7, #408]	; 0x198
 8001bde:	00db      	lsls	r3, r3, #3
 8001be0:	f503 73f0 	add.w	r3, r3, #480	; 0x1e0
 8001be4:	443b      	add	r3, r7
 8001be6:	f853 3ccc 	ldr.w	r3, [r3, #-204]
 8001bea:	009b      	lsls	r3, r3, #2
 8001bec:	f503 73f0 	add.w	r3, r3, #480	; 0x1e0
 8001bf0:	443b      	add	r3, r7
 8001bf2:	f843 2c80 	str.w	r2, [r3, #-128]
 8001bf6:	f8d7 3198 	ldr.w	r3, [r7, #408]	; 0x198
 8001bfa:	00db      	lsls	r3, r3, #3
 8001bfc:	f503 73f0 	add.w	r3, r3, #480	; 0x1e0
 8001c00:	443b      	add	r3, r7
 8001c02:	f853 3ccc 	ldr.w	r3, [r3, #-204]
 8001c06:	009b      	lsls	r3, r3, #2
 8001c08:	f503 73f0 	add.w	r3, r3, #480	; 0x1e0
 8001c0c:	443b      	add	r3, r7
 8001c0e:	f853 3c80 	ldr.w	r3, [r3, #-128]
 8001c12:	2b00      	cmp	r3, #0
 8001c14:	dc2f      	bgt.n	8001c76 <buildFastMatrix+0x866>
 8001c16:	f8d7 11a8 	ldr.w	r1, [r7, #424]	; 0x1a8
 8001c1a:	4b34      	ldr	r3, [pc, #208]	; (8001cec <buildFastMatrix+0x8dc>)
 8001c1c:	fb83 3201 	smull	r3, r2, r3, r1
 8001c20:	17cb      	asrs	r3, r1, #31
 8001c22:	1ad2      	subs	r2, r2, r3
 8001c24:	4613      	mov	r3, r2
 8001c26:	005b      	lsls	r3, r3, #1
 8001c28:	4413      	add	r3, r2
 8001c2a:	005b      	lsls	r3, r3, #1
 8001c2c:	1aca      	subs	r2, r1, r3
 8001c2e:	f8d7 3198 	ldr.w	r3, [r7, #408]	; 0x198
 8001c32:	00db      	lsls	r3, r3, #3
 8001c34:	f503 73f0 	add.w	r3, r3, #480	; 0x1e0
 8001c38:	443b      	add	r3, r7
 8001c3a:	f853 1ccc 	ldr.w	r1, [r3, #-204]
 8001c3e:	0093      	lsls	r3, r2, #2
 8001c40:	f503 73f0 	add.w	r3, r3, #480	; 0x1e0
 8001c44:	443b      	add	r3, r7
 8001c46:	f843 1c6c 	str.w	r1, [r3, #-108]
 8001c4a:	f8d7 31a8 	ldr.w	r3, [r7, #424]	; 0x1a8
 8001c4e:	3301      	adds	r3, #1
 8001c50:	f8c7 31a8 	str.w	r3, [r7, #424]	; 0x1a8
 8001c54:	f8d7 3198 	ldr.w	r3, [r7, #408]	; 0x198
 8001c58:	00db      	lsls	r3, r3, #3
 8001c5a:	f503 73f0 	add.w	r3, r3, #480	; 0x1e0
 8001c5e:	443b      	add	r3, r7
 8001c60:	f853 3ccc 	ldr.w	r3, [r3, #-204]
 8001c64:	009b      	lsls	r3, r3, #2
 8001c66:	f503 73f0 	add.w	r3, r3, #480	; 0x1e0
 8001c6a:	443b      	add	r3, r7
 8001c6c:	2201      	movs	r2, #1
 8001c6e:	f843 2ce4 	str.w	r2, [r3, #-228]
 8001c72:	e000      	b.n	8001c76 <buildFastMatrix+0x866>
 8001c74:	bf00      	nop
 8001c76:	f8d7 3198 	ldr.w	r3, [r7, #408]	; 0x198
 8001c7a:	3301      	adds	r3, #1
 8001c7c:	f8c7 3198 	str.w	r3, [r7, #408]	; 0x198
 8001c80:	f8d7 3198 	ldr.w	r3, [r7, #408]	; 0x198
 8001c84:	2b04      	cmp	r3, #4
 8001c86:	dd86      	ble.n	8001b96 <buildFastMatrix+0x786>
 8001c88:	4917      	ldr	r1, [pc, #92]	; (8001ce8 <buildFastMatrix+0x8d8>)
 8001c8a:	f8d7 21a4 	ldr.w	r2, [r7, #420]	; 0x1a4
 8001c8e:	4613      	mov	r3, r2
 8001c90:	005b      	lsls	r3, r3, #1
 8001c92:	4413      	add	r3, r2
 8001c94:	011b      	lsls	r3, r3, #4
 8001c96:	440b      	add	r3, r1
 8001c98:	332c      	adds	r3, #44	; 0x2c
 8001c9a:	f8d7 219c 	ldr.w	r2, [r7, #412]	; 0x19c
 8001c9e:	601a      	str	r2, [r3, #0]
 8001ca0:	f8d7 31a4 	ldr.w	r3, [r7, #420]	; 0x1a4
 8001ca4:	3301      	adds	r3, #1
 8001ca6:	f8c7 31a4 	str.w	r3, [r7, #420]	; 0x1a4
 8001caa:	f8d7 21a4 	ldr.w	r2, [r7, #420]	; 0x1a4
 8001cae:	4b11      	ldr	r3, [pc, #68]	; (8001cf4 <buildFastMatrix+0x8e4>)
 8001cb0:	681b      	ldr	r3, [r3, #0]
 8001cb2:	429a      	cmp	r2, r3
 8001cb4:	f4ff aee0 	bcc.w	8001a78 <buildFastMatrix+0x668>
 8001cb8:	f8d7 31b4 	ldr.w	r3, [r7, #436]	; 0x1b4
 8001cbc:	2b01      	cmp	r3, #1
 8001cbe:	d10b      	bne.n	8001cd8 <buildFastMatrix+0x8c8>
 8001cc0:	4b0c      	ldr	r3, [pc, #48]	; (8001cf4 <buildFastMatrix+0x8e4>)
 8001cc2:	681b      	ldr	r3, [r3, #0]
 8001cc4:	1e5a      	subs	r2, r3, #1
 8001cc6:	4908      	ldr	r1, [pc, #32]	; (8001ce8 <buildFastMatrix+0x8d8>)
 8001cc8:	4613      	mov	r3, r2
 8001cca:	005b      	lsls	r3, r3, #1
 8001ccc:	4413      	add	r3, r2
 8001cce:	011b      	lsls	r3, r3, #4
 8001cd0:	440b      	add	r3, r1
 8001cd2:	332c      	adds	r3, #44	; 0x2c
 8001cd4:	2200      	movs	r2, #0
 8001cd6:	601a      	str	r2, [r3, #0]
 8001cd8:	bf00      	nop
 8001cda:	f507 77f2 	add.w	r7, r7, #484	; 0x1e4
 8001cde:	46bd      	mov	sp, r7
 8001ce0:	bd90      	pop	{r4, r7, pc}
 8001ce2:	bf00      	nop
 8001ce4:	20000004 	andcs	r0, r0, r4
 8001ce8:	20000d88 	andcs	r0, r0, r8, lsl #27
 8001cec:	2aaaaaab 	bcs	6aac7a0 <_Min_Heap_Size+0x6aac3a0>
 8001cf0:	20000b84 	andcs	r0, r0, r4, lsl #23
 8001cf4:	20000008 	andcs	r0, r0, r8

08001cf8 <recoverDelayMark>:
 8001cf8:	b580      	push	{r7, lr}
 8001cfa:	b086      	sub	sp, #24
 8001cfc:	af00      	add	r7, sp, #0
 8001cfe:	f003 fa39 	bl	8005174 <HAL_GetTick>
 8001d02:	6178      	str	r0, [r7, #20]
 8001d04:	4b55      	ldr	r3, [pc, #340]	; (8001e5c <recoverDelayMark+0x164>)
 8001d06:	681b      	ldr	r3, [r3, #0]
 8001d08:	697a      	ldr	r2, [r7, #20]
 8001d0a:	1ad3      	subs	r3, r2, r3
 8001d0c:	ee07 3a90 	vmov	s15, r3
 8001d10:	eef8 6a67 	vcvt.f32.u32	s13, s15
 8001d14:	4b52      	ldr	r3, [pc, #328]	; (8001e60 <recoverDelayMark+0x168>)
 8001d16:	681b      	ldr	r3, [r3, #0]
 8001d18:	ee07 3a90 	vmov	s15, r3
 8001d1c:	eef8 7a67 	vcvt.f32.u32	s15, s15
 8001d20:	ee86 7aa7 	vdiv.f32	s14, s13, s15
 8001d24:	4b4d      	ldr	r3, [pc, #308]	; (8001e5c <recoverDelayMark+0x164>)
 8001d26:	681b      	ldr	r3, [r3, #0]
 8001d28:	697a      	ldr	r2, [r7, #20]
 8001d2a:	1ad2      	subs	r2, r2, r3
 8001d2c:	4b4c      	ldr	r3, [pc, #304]	; (8001e60 <recoverDelayMark+0x168>)
 8001d2e:	681b      	ldr	r3, [r3, #0]
 8001d30:	fbb2 f3f3 	udiv	r3, r2, r3
 8001d34:	ee07 3a90 	vmov	s15, r3
 8001d38:	eef8 7ae7 	vcvt.f32.s32	s15, s15
 8001d3c:	ee77 7a67 	vsub.f32	s15, s14, s15
 8001d40:	eef5 7ac0 	vcmpe.f32	s15, #0.0
 8001d44:	eef1 fa10 	vmrs	APSR_nzcv, fpscr
 8001d48:	dd09      	ble.n	8001d5e <recoverDelayMark+0x66>
 8001d4a:	4b44      	ldr	r3, [pc, #272]	; (8001e5c <recoverDelayMark+0x164>)
 8001d4c:	681b      	ldr	r3, [r3, #0]
 8001d4e:	697a      	ldr	r2, [r7, #20]
 8001d50:	1ad2      	subs	r2, r2, r3
 8001d52:	4b43      	ldr	r3, [pc, #268]	; (8001e60 <recoverDelayMark+0x168>)
 8001d54:	681b      	ldr	r3, [r3, #0]
 8001d56:	fbb2 f3f3 	udiv	r3, r2, r3
 8001d5a:	3b01      	subs	r3, #1
 8001d5c:	e007      	b.n	8001d6e <recoverDelayMark+0x76>
 8001d5e:	4b3f      	ldr	r3, [pc, #252]	; (8001e5c <recoverDelayMark+0x164>)
 8001d60:	681b      	ldr	r3, [r3, #0]
 8001d62:	697a      	ldr	r2, [r7, #20]
 8001d64:	1ad2      	subs	r2, r2, r3
 8001d66:	4b3e      	ldr	r3, [pc, #248]	; (8001e60 <recoverDelayMark+0x168>)
 8001d68:	681b      	ldr	r3, [r3, #0]
 8001d6a:	fbb2 f3f3 	udiv	r3, r2, r3
 8001d6e:	613b      	str	r3, [r7, #16]
 8001d70:	4b3a      	ldr	r3, [pc, #232]	; (8001e5c <recoverDelayMark+0x164>)
 8001d72:	681b      	ldr	r3, [r3, #0]
 8001d74:	697a      	ldr	r2, [r7, #20]
 8001d76:	1ad3      	subs	r3, r2, r3
 8001d78:	4a39      	ldr	r2, [pc, #228]	; (8001e60 <recoverDelayMark+0x168>)
 8001d7a:	6812      	ldr	r2, [r2, #0]
 8001d7c:	fbb3 f1f2 	udiv	r1, r3, r2
 8001d80:	fb01 f202 	mul.w	r2, r1, r2
 8001d84:	1a9b      	subs	r3, r3, r2
 8001d86:	60fb      	str	r3, [r7, #12]
 8001d88:	68fb      	ldr	r3, [r7, #12]
 8001d8a:	ee07 3a90 	vmov	s15, r3
 8001d8e:	eef8 6a67 	vcvt.f32.u32	s13, s15
 8001d92:	4b34      	ldr	r3, [pc, #208]	; (8001e64 <recoverDelayMark+0x16c>)
 8001d94:	681b      	ldr	r3, [r3, #0]
 8001d96:	ee07 3a90 	vmov	s15, r3
 8001d9a:	eef8 7a67 	vcvt.f32.u32	s15, s15
 8001d9e:	ee86 7aa7 	vdiv.f32	s14, s13, s15
 8001da2:	4b30      	ldr	r3, [pc, #192]	; (8001e64 <recoverDelayMark+0x16c>)
 8001da4:	681b      	ldr	r3, [r3, #0]
 8001da6:	68fa      	ldr	r2, [r7, #12]
 8001da8:	fbb2 f3f3 	udiv	r3, r2, r3
 8001dac:	ee07 3a90 	vmov	s15, r3
 8001db0:	eef8 7ae7 	vcvt.f32.s32	s15, s15
 8001db4:	ee77 7a67 	vsub.f32	s15, s14, s15
 8001db8:	eef5 7ac0 	vcmpe.f32	s15, #0.0
 8001dbc:	eef1 fa10 	vmrs	APSR_nzcv, fpscr
 8001dc0:	dd06      	ble.n	8001dd0 <recoverDelayMark+0xd8>
 8001dc2:	4b28      	ldr	r3, [pc, #160]	; (8001e64 <recoverDelayMark+0x16c>)
 8001dc4:	681b      	ldr	r3, [r3, #0]
 8001dc6:	68fa      	ldr	r2, [r7, #12]
 8001dc8:	fbb2 f3f3 	udiv	r3, r2, r3
 8001dcc:	3b01      	subs	r3, #1
 8001dce:	e004      	b.n	8001dda <recoverDelayMark+0xe2>
 8001dd0:	4b24      	ldr	r3, [pc, #144]	; (8001e64 <recoverDelayMark+0x16c>)
 8001dd2:	681b      	ldr	r3, [r3, #0]
 8001dd4:	68fa      	ldr	r2, [r7, #12]
 8001dd6:	fbb2 f3f3 	udiv	r3, r2, r3
 8001dda:	60bb      	str	r3, [r7, #8]
 8001ddc:	4b22      	ldr	r3, [pc, #136]	; (8001e68 <recoverDelayMark+0x170>)
 8001dde:	681a      	ldr	r2, [r3, #0]
 8001de0:	693b      	ldr	r3, [r7, #16]
 8001de2:	4413      	add	r3, r2
 8001de4:	4a20      	ldr	r2, [pc, #128]	; (8001e68 <recoverDelayMark+0x170>)
 8001de6:	6013      	str	r3, [r2, #0]
 8001de8:	4b1e      	ldr	r3, [pc, #120]	; (8001e64 <recoverDelayMark+0x16c>)
 8001dea:	681a      	ldr	r2, [r3, #0]
 8001dec:	68bb      	ldr	r3, [r7, #8]
 8001dee:	4413      	add	r3, r2
 8001df0:	4a1c      	ldr	r2, [pc, #112]	; (8001e64 <recoverDelayMark+0x16c>)
 8001df2:	6013      	str	r3, [r2, #0]
 8001df4:	4b1b      	ldr	r3, [pc, #108]	; (8001e64 <recoverDelayMark+0x16c>)
 8001df6:	681a      	ldr	r2, [r3, #0]
 8001df8:	4b1c      	ldr	r3, [pc, #112]	; (8001e6c <recoverDelayMark+0x174>)
 8001dfa:	681b      	ldr	r3, [r3, #0]
 8001dfc:	fbb2 f3f3 	udiv	r3, r2, r3
 8001e00:	607b      	str	r3, [r7, #4]
 8001e02:	687b      	ldr	r3, [r7, #4]
 8001e04:	2b00      	cmp	r3, #0
 8001e06:	d00f      	beq.n	8001e28 <recoverDelayMark+0x130>
 8001e08:	4b17      	ldr	r3, [pc, #92]	; (8001e68 <recoverDelayMark+0x170>)
 8001e0a:	681b      	ldr	r3, [r3, #0]
 8001e0c:	3301      	adds	r3, #1
 8001e0e:	4a16      	ldr	r2, [pc, #88]	; (8001e68 <recoverDelayMark+0x170>)
 8001e10:	6013      	str	r3, [r2, #0]
 8001e12:	4b14      	ldr	r3, [pc, #80]	; (8001e64 <recoverDelayMark+0x16c>)
 8001e14:	681b      	ldr	r3, [r3, #0]
 8001e16:	4a15      	ldr	r2, [pc, #84]	; (8001e6c <recoverDelayMark+0x174>)
 8001e18:	6812      	ldr	r2, [r2, #0]
 8001e1a:	fbb3 f1f2 	udiv	r1, r3, r2
 8001e1e:	fb01 f202 	mul.w	r2, r1, r2
 8001e22:	1a9b      	subs	r3, r3, r2
 8001e24:	4a0f      	ldr	r2, [pc, #60]	; (8001e64 <recoverDelayMark+0x16c>)
 8001e26:	6013      	str	r3, [r2, #0]
 8001e28:	4b0e      	ldr	r3, [pc, #56]	; (8001e64 <recoverDelayMark+0x16c>)
 8001e2a:	681a      	ldr	r2, [r3, #0]
 8001e2c:	68fb      	ldr	r3, [r7, #12]
 8001e2e:	fbb3 f1f2 	udiv	r1, r3, r2
 8001e32:	fb01 f202 	mul.w	r2, r1, r2
 8001e36:	1a9b      	subs	r3, r3, r2
 8001e38:	2b00      	cmp	r3, #0
 8001e3a:	d00a      	beq.n	8001e52 <recoverDelayMark+0x15a>
 8001e3c:	4b09      	ldr	r3, [pc, #36]	; (8001e64 <recoverDelayMark+0x16c>)
 8001e3e:	681a      	ldr	r2, [r3, #0]
 8001e40:	68fb      	ldr	r3, [r7, #12]
 8001e42:	fbb3 f1f2 	udiv	r1, r3, r2
 8001e46:	fb01 f202 	mul.w	r2, r1, r2
 8001e4a:	1a9b      	subs	r3, r3, r2
 8001e4c:	461a      	mov	r2, r3
 8001e4e:	4b08      	ldr	r3, [pc, #32]	; (8001e70 <recoverDelayMark+0x178>)
 8001e50:	601a      	str	r2, [r3, #0]
 8001e52:	bf00      	nop
 8001e54:	3718      	adds	r7, #24
 8001e56:	46bd      	mov	sp, r7
 8001e58:	bd80      	pop	{r7, pc}
 8001e5a:	bf00      	nop
 8001e5c:	20000b80 	andcs	r0, r0, r0, lsl #23
 8001e60:	20000000 	andcs	r0, r0, r0
 8001e64:	20000b7c 	andcs	r0, r0, ip, ror fp
 8001e68:	20000b78 	andcs	r0, r0, r8, ror fp
 8001e6c:	20000008 	andcs	r0, r0, r8
 8001e70:	20000c94 	mulcs	r0, r4, ip

08001e74 <showFastMatrix>:
 8001e74:	b590      	push	{r4, r7, lr}
 8001e76:	b0e9      	sub	sp, #420	; 0x1a4
 8001e78:	af00      	add	r7, sp, #0
 8001e7a:	f107 03cc 	add.w	r3, r7, #204	; 0xcc
 8001e7e:	220a      	movs	r2, #10
 8001e80:	496d      	ldr	r1, [pc, #436]	; (8002038 <showFastMatrix+0x1c4>)
 8001e82:	4618      	mov	r0, r3
 8001e84:	f00c f93e 	bl	800e104 <siprintf>
 8001e88:	f107 03cc 	add.w	r3, r7, #204	; 0xcc
 8001e8c:	4618      	mov	r0, r3
 8001e8e:	f7fe f9a9 	bl	80001e4 <strlen>
 8001e92:	4603      	mov	r3, r0
 8001e94:	b29a      	uxth	r2, r3
 8001e96:	f107 01cc 	add.w	r1, r7, #204	; 0xcc
 8001e9a:	f64f 73ff 	movw	r3, #65535	; 0xffff
 8001e9e:	4867      	ldr	r0, [pc, #412]	; (800203c <showFastMatrix+0x1c8>)
 8001ea0:	f007 fb32 	bl	8009508 <HAL_UART_Transmit>
 8001ea4:	2300      	movs	r3, #0
 8001ea6:	f8c7 319c 	str.w	r3, [r7, #412]	; 0x19c
 8001eaa:	e0a5      	b.n	8001ff8 <showFastMatrix+0x184>
 8001eac:	4964      	ldr	r1, [pc, #400]	; (8002040 <showFastMatrix+0x1cc>)
 8001eae:	f8d7 219c 	ldr.w	r2, [r7, #412]	; 0x19c
 8001eb2:	4613      	mov	r3, r2
 8001eb4:	005b      	lsls	r3, r3, #1
 8001eb6:	4413      	add	r3, r2
 8001eb8:	011b      	lsls	r3, r3, #4
 8001eba:	440b      	add	r3, r1
 8001ebc:	332c      	adds	r3, #44	; 0x2c
 8001ebe:	681b      	ldr	r3, [r3, #0]
 8001ec0:	f107 00cc 	add.w	r0, r7, #204	; 0xcc
 8001ec4:	f8d7 219c 	ldr.w	r2, [r7, #412]	; 0x19c
 8001ec8:	495e      	ldr	r1, [pc, #376]	; (8002044 <showFastMatrix+0x1d0>)
 8001eca:	f00c f91b 	bl	800e104 <siprintf>
 8001ece:	495c      	ldr	r1, [pc, #368]	; (8002040 <showFastMatrix+0x1cc>)
 8001ed0:	f8d7 219c 	ldr.w	r2, [r7, #412]	; 0x19c
 8001ed4:	4613      	mov	r3, r2
 8001ed6:	005b      	lsls	r3, r3, #1
 8001ed8:	4413      	add	r3, r2
 8001eda:	011b      	lsls	r3, r3, #4
 8001edc:	440b      	add	r3, r1
 8001ede:	332c      	adds	r3, #44	; 0x2c
 8001ee0:	681b      	ldr	r3, [r3, #0]
 8001ee2:	2b00      	cmp	r3, #0
 8001ee4:	d112      	bne.n	8001f0c <showFastMatrix+0x98>
 8001ee6:	f107 03cc 	add.w	r3, r7, #204	; 0xcc
 8001eea:	4618      	mov	r0, r3
 8001eec:	f7fe f97a 	bl	80001e4 <strlen>
 8001ef0:	4603      	mov	r3, r0
 8001ef2:	461a      	mov	r2, r3
 8001ef4:	f107 03cc 	add.w	r3, r7, #204	; 0xcc
 8001ef8:	4413      	add	r3, r2
 8001efa:	4a53      	ldr	r2, [pc, #332]	; (8002048 <showFastMatrix+0x1d4>)
 8001efc:	461c      	mov	r4, r3
 8001efe:	4613      	mov	r3, r2
 8001f00:	cb07      	ldmia	r3!, {r0, r1, r2}
 8001f02:	6020      	str	r0, [r4, #0]
 8001f04:	6061      	str	r1, [r4, #4]
 8001f06:	60a2      	str	r2, [r4, #8]
 8001f08:	781b      	ldrb	r3, [r3, #0]
 8001f0a:	7323      	strb	r3, [r4, #12]
 8001f0c:	2300      	movs	r3, #0
 8001f0e:	f8c7 3198 	str.w	r3, [r7, #408]	; 0x198
 8001f12:	e050      	b.n	8001fb6 <showFastMatrix+0x142>
 8001f14:	494a      	ldr	r1, [pc, #296]	; (8002040 <showFastMatrix+0x1cc>)
 8001f16:	f8d7 219c 	ldr.w	r2, [r7, #412]	; 0x19c
 8001f1a:	4613      	mov	r3, r2
 8001f1c:	005b      	lsls	r3, r3, #1
 8001f1e:	4413      	add	r3, r2
 8001f20:	011b      	lsls	r3, r3, #4
 8001f22:	440b      	add	r3, r1
 8001f24:	332c      	adds	r3, #44	; 0x2c
 8001f26:	681b      	ldr	r3, [r3, #0]
 8001f28:	3b01      	subs	r3, #1
 8001f2a:	f8d7 2198 	ldr.w	r2, [r7, #408]	; 0x198
 8001f2e:	429a      	cmp	r2, r3
 8001f30:	d101      	bne.n	8001f36 <showFastMatrix+0xc2>
 8001f32:	4b46      	ldr	r3, [pc, #280]	; (800204c <showFastMatrix+0x1d8>)
 8001f34:	e000      	b.n	8001f38 <showFastMatrix+0xc4>
 8001f36:	4b46      	ldr	r3, [pc, #280]	; (8002050 <showFastMatrix+0x1dc>)
 8001f38:	f8c7 3194 	str.w	r3, [r7, #404]	; 0x194
 8001f3c:	f8d7 3198 	ldr.w	r3, [r7, #408]	; 0x198
 8001f40:	2b00      	cmp	r3, #0
 8001f42:	d114      	bne.n	8001f6e <showFastMatrix+0xfa>
 8001f44:	4b43      	ldr	r3, [pc, #268]	; (8002054 <showFastMatrix+0x1e0>)
 8001f46:	f8c7 3194 	str.w	r3, [r7, #404]	; 0x194
 8001f4a:	493d      	ldr	r1, [pc, #244]	; (8002040 <showFastMatrix+0x1cc>)
 8001f4c:	f8d7 219c 	ldr.w	r2, [r7, #412]	; 0x19c
 8001f50:	4613      	mov	r3, r2
 8001f52:	005b      	lsls	r3, r3, #1
 8001f54:	4413      	add	r3, r2
 8001f56:	011b      	lsls	r3, r3, #4
 8001f58:	440b      	add	r3, r1
 8001f5a:	332c      	adds	r3, #44	; 0x2c
 8001f5c:	681b      	ldr	r3, [r3, #0]
 8001f5e:	3b01      	subs	r3, #1
 8001f60:	f8d7 2198 	ldr.w	r2, [r7, #408]	; 0x198
 8001f64:	429a      	cmp	r2, r3
 8001f66:	d102      	bne.n	8001f6e <showFastMatrix+0xfa>
 8001f68:	4b3b      	ldr	r3, [pc, #236]	; (8002058 <showFastMatrix+0x1e4>)
 8001f6a:	f8c7 3194 	str.w	r3, [r7, #404]	; 0x194
 8001f6e:	4934      	ldr	r1, [pc, #208]	; (8002040 <showFastMatrix+0x1cc>)
 8001f70:	f8d7 219c 	ldr.w	r2, [r7, #412]	; 0x19c
 8001f74:	4613      	mov	r3, r2
 8001f76:	005b      	lsls	r3, r3, #1
 8001f78:	4413      	add	r3, r2
 8001f7a:	009b      	lsls	r3, r3, #2
 8001f7c:	f8d7 2198 	ldr.w	r2, [r7, #408]	; 0x198
 8001f80:	4413      	add	r3, r2
 8001f82:	009b      	lsls	r3, r3, #2
 8001f84:	440b      	add	r3, r1
 8001f86:	685b      	ldr	r3, [r3, #4]
 8001f88:	2234      	movs	r2, #52	; 0x34
 8001f8a:	fb02 f303 	mul.w	r3, r2, r3
 8001f8e:	4a33      	ldr	r2, [pc, #204]	; (800205c <showFastMatrix+0x1e8>)
 8001f90:	441a      	add	r2, r3
 8001f92:	1d3b      	adds	r3, r7, #4
 8001f94:	f8d7 1194 	ldr.w	r1, [r7, #404]	; 0x194
 8001f98:	4618      	mov	r0, r3
 8001f9a:	f00c f8b3 	bl	800e104 <siprintf>
 8001f9e:	1d3a      	adds	r2, r7, #4
 8001fa0:	f107 03cc 	add.w	r3, r7, #204	; 0xcc
 8001fa4:	4611      	mov	r1, r2
 8001fa6:	4618      	mov	r0, r3
 8001fa8:	f00c f90f 	bl	800e1ca <strcat>
 8001fac:	f8d7 3198 	ldr.w	r3, [r7, #408]	; 0x198
 8001fb0:	3301      	adds	r3, #1
 8001fb2:	f8c7 3198 	str.w	r3, [r7, #408]	; 0x198
 8001fb6:	4922      	ldr	r1, [pc, #136]	; (8002040 <showFastMatrix+0x1cc>)
 8001fb8:	f8d7 219c 	ldr.w	r2, [r7, #412]	; 0x19c
 8001fbc:	4613      	mov	r3, r2
 8001fbe:	005b      	lsls	r3, r3, #1
 8001fc0:	4413      	add	r3, r2
 8001fc2:	011b      	lsls	r3, r3, #4
 8001fc4:	440b      	add	r3, r1
 8001fc6:	332c      	adds	r3, #44	; 0x2c
 8001fc8:	681b      	ldr	r3, [r3, #0]
 8001fca:	f8d7 2198 	ldr.w	r2, [r7, #408]	; 0x198
 8001fce:	429a      	cmp	r2, r3
 8001fd0:	dba0      	blt.n	8001f14 <showFastMatrix+0xa0>
 8001fd2:	f107 03cc 	add.w	r3, r7, #204	; 0xcc
 8001fd6:	4618      	mov	r0, r3
 8001fd8:	f7fe f904 	bl	80001e4 <strlen>
 8001fdc:	4603      	mov	r3, r0
 8001fde:	b29a      	uxth	r2, r3
 8001fe0:	f107 01cc 	add.w	r1, r7, #204	; 0xcc
 8001fe4:	f64f 73ff 	movw	r3, #65535	; 0xffff
 8001fe8:	4814      	ldr	r0, [pc, #80]	; (800203c <showFastMatrix+0x1c8>)
 8001fea:	f007 fa8d 	bl	8009508 <HAL_UART_Transmit>
 8001fee:	f8d7 319c 	ldr.w	r3, [r7, #412]	; 0x19c
 8001ff2:	3301      	adds	r3, #1
 8001ff4:	f8c7 319c 	str.w	r3, [r7, #412]	; 0x19c
 8001ff8:	f8d7 219c 	ldr.w	r2, [r7, #412]	; 0x19c
 8001ffc:	4b18      	ldr	r3, [pc, #96]	; (8002060 <showFastMatrix+0x1ec>)
 8001ffe:	681b      	ldr	r3, [r3, #0]
 8002000:	429a      	cmp	r2, r3
 8002002:	f4ff af53 	bcc.w	8001eac <showFastMatrix+0x38>
 8002006:	f107 03cc 	add.w	r3, r7, #204	; 0xcc
 800200a:	4916      	ldr	r1, [pc, #88]	; (8002064 <showFastMatrix+0x1f0>)
 800200c:	4618      	mov	r0, r3
 800200e:	f00c f879 	bl	800e104 <siprintf>
 8002012:	f107 03cc 	add.w	r3, r7, #204	; 0xcc
 8002016:	4618      	mov	r0, r3
 8002018:	f7fe f8e4 	bl	80001e4 <strlen>
 800201c:	4603      	mov	r3, r0
 800201e:	b29a      	uxth	r2, r3
 8002020:	f107 01cc 	add.w	r1, r7, #204	; 0xcc
 8002024:	f64f 73ff 	movw	r3, #65535	; 0xffff
 8002028:	4804      	ldr	r0, [pc, #16]	; (800203c <showFastMatrix+0x1c8>)
 800202a:	f007 fa6d 	bl	8009508 <HAL_UART_Transmit>
 800202e:	bf00      	nop
 8002030:	f507 77d2 	add.w	r7, r7, #420	; 0x1a4
 8002034:	46bd      	mov	sp, r7
 8002036:	bd90      	pop	{r4, r7, pc}
 8002038:	08010624 	stmdaeq	r1, {r2, r5, r9, sl}
 800203c:	200033a0 	andcs	r3, r0, r0, lsr #7
 8002040:	20000d88 	andcs	r0, r0, r8, lsl #27
 8002044:	08010678 	stmdaeq	r1, {r3, r4, r5, r6, r9, sl}
 8002048:	08010698 	stmdaeq	r1, {r3, r4, r7, r9, sl}
 800204c:	080106a8 	stmdaeq	r1, {r3, r5, r7, r9, sl}
 8002050:	080106b0 	stmdaeq	r1, {r4, r5, r7, r9, sl}
 8002054:	080106b8 	stmdaeq	r1, {r3, r4, r5, r7, r9, sl}
 8002058:	080106c0 	stmdaeq	r1, {r6, r7, r9, sl}
 800205c:	20000b84 	andcs	r0, r0, r4, lsl #23
 8002060:	20000008 	andcs	r0, r0, r8
 8002064:	080106c8 	stmdaeq	r1, {r3, r6, r7, r9, sl}

08002068 <Error_Handler>:
 8002068:	b580      	push	{r7, lr}
 800206a:	af00      	add	r7, sp, #0
 800206c:	f44f 4180 	mov.w	r1, #16384	; 0x4000
 8002070:	4803      	ldr	r0, [pc, #12]	; (8002080 <Error_Handler+0x18>)
 8002072:	f003 fcbf 	bl	80059f4 <HAL_GPIO_TogglePin>
 8002076:	f44f 70fa 	mov.w	r0, #500	; 0x1f4
 800207a:	f003 f887 	bl	800518c <HAL_Delay>
 800207e:	e7f5      	b.n	800206c <Error_Handler+0x4>
 8002080:	48000400 	stmdami	r0, {sl}

08002084 <HAL_GPIO_EXTI_Callback>:
 8002084:	b580      	push	{r7, lr}
 8002086:	b084      	sub	sp, #16
 8002088:	af00      	add	r7, sp, #0
 800208a:	4603      	mov	r3, r0
 800208c:	80fb      	strh	r3, [r7, #6]
 800208e:	88fb      	ldrh	r3, [r7, #6]
 8002090:	f5b3 5f00 	cmp.w	r3, #8192	; 0x2000
 8002094:	d10d      	bne.n	80020b2 <HAL_GPIO_EXTI_Callback+0x2e>
 8002096:	4b23      	ldr	r3, [pc, #140]	; (8002124 <HAL_GPIO_EXTI_Callback+0xa0>)
 8002098:	2201      	movs	r2, #1
 800209a:	601a      	str	r2, [r3, #0]
 800209c:	4b22      	ldr	r3, [pc, #136]	; (8002128 <HAL_GPIO_EXTI_Callback+0xa4>)
 800209e:	681b      	ldr	r3, [r3, #0]
 80020a0:	3301      	adds	r3, #1
 80020a2:	2b00      	cmp	r3, #0
 80020a4:	f003 0301 	and.w	r3, r3, #1
 80020a8:	bfb8      	it	lt
 80020aa:	425b      	neglt	r3, r3
 80020ac:	4a1e      	ldr	r2, [pc, #120]	; (8002128 <HAL_GPIO_EXTI_Callback+0xa4>)
 80020ae:	6013      	str	r3, [r2, #0]
 80020b0:	e033      	b.n	800211a <HAL_GPIO_EXTI_Callback+0x96>
 80020b2:	88fb      	ldrh	r3, [r7, #6]
 80020b4:	f5b3 6f00 	cmp.w	r3, #2048	; 0x800
 80020b8:	d124      	bne.n	8002104 <HAL_GPIO_EXTI_Callback+0x80>
 80020ba:	2153      	movs	r1, #83	; 0x53
 80020bc:	20d4      	movs	r0, #212	; 0xd4
 80020be:	f001 ffdb 	bl	8004078 <SENSOR_IO_Read>
 80020c2:	4603      	mov	r3, r0
 80020c4:	73fb      	strb	r3, [r7, #15]
 80020c6:	7bfb      	ldrb	r3, [r7, #15]
 80020c8:	f003 0320 	and.w	r3, r3, #32
 80020cc:	2b00      	cmp	r3, #0
 80020ce:	bf14      	ite	ne
 80020d0:	2301      	movne	r3, #1
 80020d2:	2300      	moveq	r3, #0
 80020d4:	b2db      	uxtb	r3, r3
 80020d6:	73fb      	strb	r3, [r7, #15]
 80020d8:	7bfb      	ldrb	r3, [r7, #15]
 80020da:	2b00      	cmp	r3, #0
 80020dc:	d01d      	beq.n	800211a <HAL_GPIO_EXTI_Callback+0x96>
 80020de:	2201      	movs	r2, #1
 80020e0:	f44f 4180 	mov.w	r1, #16384	; 0x4000
 80020e4:	4811      	ldr	r0, [pc, #68]	; (800212c <HAL_GPIO_EXTI_Callback+0xa8>)
 80020e6:	f003 fc6d 	bl	80059c4 <HAL_GPIO_WritePin>
 80020ea:	4811      	ldr	r0, [pc, #68]	; (8002130 <HAL_GPIO_EXTI_Callback+0xac>)
 80020ec:	f006 ff6a 	bl	8008fc4 <HAL_TIM_Base_Start_IT>
 80020f0:	2032      	movs	r0, #50	; 0x32
 80020f2:	f003 f84b 	bl	800518c <HAL_Delay>
 80020f6:	f241 3088 	movw	r0, #5000	; 0x1388
 80020fa:	f000 f81f 	bl	800213c <timerDelay>
 80020fe:	f7ff fdfb 	bl	8001cf8 <recoverDelayMark>
 8002102:	e00a      	b.n	800211a <HAL_GPIO_EXTI_Callback+0x96>
 8002104:	88fb      	ldrh	r3, [r7, #6]
 8002106:	2b02      	cmp	r3, #2
 8002108:	d107      	bne.n	800211a <HAL_GPIO_EXTI_Callback+0x96>
 800210a:	2102      	movs	r1, #2
 800210c:	4809      	ldr	r0, [pc, #36]	; (8002134 <HAL_GPIO_EXTI_Callback+0xb0>)
 800210e:	f003 fc41 	bl	8005994 <HAL_GPIO_ReadPin>
 8002112:	4603      	mov	r3, r0
 8002114:	461a      	mov	r2, r3
 8002116:	4b08      	ldr	r3, [pc, #32]	; (8002138 <HAL_GPIO_EXTI_Callback+0xb4>)
 8002118:	701a      	strb	r2, [r3, #0]
 800211a:	bf00      	nop
 800211c:	3710      	adds	r7, #16
 800211e:	46bd      	mov	sp, r7
 8002120:	bd80      	pop	{r7, pc}
 8002122:	bf00      	nop
 8002124:	20000c90 	mulcs	r0, r0, ip
 8002128:	20000c88 	andcs	r0, r0, r8, lsl #25
 800212c:	48000400 	stmdami	r0, {sl}
 8002130:	20003460 	andcs	r3, r0, r0, ror #8
 8002134:	48001000 	stmdami	r0, {ip}
 8002138:	20003338 	andcs	r3, r0, r8, lsr r3

0800213c <timerDelay>:
 800213c:	b580      	push	{r7, lr}
 800213e:	b084      	sub	sp, #16
 8002140:	af00      	add	r7, sp, #0
 8002142:	4603      	mov	r3, r0
 8002144:	80fb      	strh	r3, [r7, #6]
 8002146:	480a      	ldr	r0, [pc, #40]	; (8002170 <timerDelay+0x34>)
 8002148:	f006 fee6 	bl	8008f18 <HAL_TIM_Base_Start>
 800214c:	4b08      	ldr	r3, [pc, #32]	; (8002170 <timerDelay+0x34>)
 800214e:	681b      	ldr	r3, [r3, #0]
 8002150:	6a5b      	ldr	r3, [r3, #36]	; 0x24
 8002152:	60fb      	str	r3, [r7, #12]
 8002154:	88fb      	ldrh	r3, [r7, #6]
 8002156:	68fa      	ldr	r2, [r7, #12]
 8002158:	429a      	cmp	r2, r3
 800215a:	d800      	bhi.n	800215e <timerDelay+0x22>
 800215c:	e7f6      	b.n	800214c <timerDelay+0x10>
 800215e:	bf00      	nop
 8002160:	4803      	ldr	r0, [pc, #12]	; (8002170 <timerDelay+0x34>)
 8002162:	f006 ff03 	bl	8008f6c <HAL_TIM_Base_Stop>
 8002166:	bf00      	nop
 8002168:	3710      	adds	r7, #16
 800216a:	46bd      	mov	sp, r7
 800216c:	bd80      	pop	{r7, pc}
 800216e:	bf00      	nop
 8002170:	200034c4 	andcs	r3, r0, r4, asr #9

08002174 <MX_GPIO_Init>:
 8002174:	b580      	push	{r7, lr}
 8002176:	b088      	sub	sp, #32
 8002178:	af00      	add	r7, sp, #0
 800217a:	f107 030c 	add.w	r3, r7, #12
 800217e:	2200      	movs	r2, #0
 8002180:	601a      	str	r2, [r3, #0]
 8002182:	605a      	str	r2, [r3, #4]
 8002184:	609a      	str	r2, [r3, #8]
 8002186:	60da      	str	r2, [r3, #12]
 8002188:	611a      	str	r2, [r3, #16]
 800218a:	4b28      	ldr	r3, [pc, #160]	; (800222c <MX_GPIO_Init+0xb8>)
 800218c:	6cdb      	ldr	r3, [r3, #76]	; 0x4c
 800218e:	4a27      	ldr	r2, [pc, #156]	; (800222c <MX_GPIO_Init+0xb8>)
 8002190:	f043 0310 	orr.w	r3, r3, #16
 8002194:	64d3      	str	r3, [r2, #76]	; 0x4c
 8002196:	4b25      	ldr	r3, [pc, #148]	; (800222c <MX_GPIO_Init+0xb8>)
 8002198:	6cdb      	ldr	r3, [r3, #76]	; 0x4c
 800219a:	f003 0310 	and.w	r3, r3, #16
 800219e:	60bb      	str	r3, [r7, #8]
 80021a0:	68bb      	ldr	r3, [r7, #8]
 80021a2:	4b22      	ldr	r3, [pc, #136]	; (800222c <MX_GPIO_Init+0xb8>)
 80021a4:	6cdb      	ldr	r3, [r3, #76]	; 0x4c
 80021a6:	4a21      	ldr	r2, [pc, #132]	; (800222c <MX_GPIO_Init+0xb8>)
 80021a8:	f043 0304 	orr.w	r3, r3, #4
 80021ac:	64d3      	str	r3, [r2, #76]	; 0x4c
 80021ae:	4b1f      	ldr	r3, [pc, #124]	; (800222c <MX_GPIO_Init+0xb8>)
 80021b0:	6cdb      	ldr	r3, [r3, #76]	; 0x4c
 80021b2:	f003 0304 	and.w	r3, r3, #4
 80021b6:	607b      	str	r3, [r7, #4]
 80021b8:	687b      	ldr	r3, [r7, #4]
 80021ba:	4b1c      	ldr	r3, [pc, #112]	; (800222c <MX_GPIO_Init+0xb8>)
 80021bc:	6cdb      	ldr	r3, [r3, #76]	; 0x4c
 80021be:	4a1b      	ldr	r2, [pc, #108]	; (800222c <MX_GPIO_Init+0xb8>)
 80021c0:	f043 0302 	orr.w	r3, r3, #2
 80021c4:	64d3      	str	r3, [r2, #76]	; 0x4c
 80021c6:	4b19      	ldr	r3, [pc, #100]	; (800222c <MX_GPIO_Init+0xb8>)
 80021c8:	6cdb      	ldr	r3, [r3, #76]	; 0x4c
 80021ca:	f003 0302 	and.w	r3, r3, #2
 80021ce:	603b      	str	r3, [r7, #0]
 80021d0:	683b      	ldr	r3, [r7, #0]
 80021d2:	2200      	movs	r2, #0
 80021d4:	f240 1101 	movw	r1, #257	; 0x101
 80021d8:	4815      	ldr	r0, [pc, #84]	; (8002230 <MX_GPIO_Init+0xbc>)
 80021da:	f003 fbf3 	bl	80059c4 <HAL_GPIO_WritePin>
 80021de:	f240 1301 	movw	r3, #257	; 0x101
 80021e2:	60fb      	str	r3, [r7, #12]
 80021e4:	2301      	movs	r3, #1
 80021e6:	613b      	str	r3, [r7, #16]
 80021e8:	2300      	movs	r3, #0
 80021ea:	617b      	str	r3, [r7, #20]
 80021ec:	2300      	movs	r3, #0
 80021ee:	61bb      	str	r3, [r7, #24]
 80021f0:	f107 030c 	add.w	r3, r7, #12
 80021f4:	4619      	mov	r1, r3
 80021f6:	480e      	ldr	r0, [pc, #56]	; (8002230 <MX_GPIO_Init+0xbc>)
 80021f8:	f003 f92e 	bl	8005458 <HAL_GPIO_Init>
 80021fc:	2302      	movs	r3, #2
 80021fe:	60fb      	str	r3, [r7, #12]
 8002200:	4b0c      	ldr	r3, [pc, #48]	; (8002234 <MX_GPIO_Init+0xc0>)
 8002202:	613b      	str	r3, [r7, #16]
 8002204:	2300      	movs	r3, #0
 8002206:	617b      	str	r3, [r7, #20]
 8002208:	f107 030c 	add.w	r3, r7, #12
 800220c:	4619      	mov	r1, r3
 800220e:	4808      	ldr	r0, [pc, #32]	; (8002230 <MX_GPIO_Init+0xbc>)
 8002210:	f003 f922 	bl	8005458 <HAL_GPIO_Init>
 8002214:	2200      	movs	r2, #0
 8002216:	2100      	movs	r1, #0
 8002218:	2007      	movs	r0, #7
 800221a:	f003 f8d8 	bl	80053ce <HAL_NVIC_SetPriority>
 800221e:	2007      	movs	r0, #7
 8002220:	f003 f8f1 	bl	8005406 <HAL_NVIC_EnableIRQ>
 8002224:	bf00      	nop
 8002226:	3720      	adds	r7, #32
 8002228:	46bd      	mov	sp, r7
 800222a:	bd80      	pop	{r7, pc}
 800222c:	40021000 	andmi	r1, r2, r0
 8002230:	48001000 	stmdami	r0, {ip}
 8002234:	10310000 	eorsne	r0, r1, r0

08002238 <MX_SPI3_Init>:
 8002238:	b580      	push	{r7, lr}
 800223a:	af00      	add	r7, sp, #0
 800223c:	4b1b      	ldr	r3, [pc, #108]	; (80022ac <MX_SPI3_Init+0x74>)
 800223e:	4a1c      	ldr	r2, [pc, #112]	; (80022b0 <MX_SPI3_Init+0x78>)
 8002240:	601a      	str	r2, [r3, #0]
 8002242:	4b1a      	ldr	r3, [pc, #104]	; (80022ac <MX_SPI3_Init+0x74>)
 8002244:	f44f 7282 	mov.w	r2, #260	; 0x104
 8002248:	605a      	str	r2, [r3, #4]
 800224a:	4b18      	ldr	r3, [pc, #96]	; (80022ac <MX_SPI3_Init+0x74>)
 800224c:	2200      	movs	r2, #0
 800224e:	609a      	str	r2, [r3, #8]
 8002250:	4b16      	ldr	r3, [pc, #88]	; (80022ac <MX_SPI3_Init+0x74>)
 8002252:	f44f 6270 	mov.w	r2, #3840	; 0xf00
 8002256:	60da      	str	r2, [r3, #12]
 8002258:	4b14      	ldr	r3, [pc, #80]	; (80022ac <MX_SPI3_Init+0x74>)
 800225a:	2200      	movs	r2, #0
 800225c:	611a      	str	r2, [r3, #16]
 800225e:	4b13      	ldr	r3, [pc, #76]	; (80022ac <MX_SPI3_Init+0x74>)
 8002260:	2200      	movs	r2, #0
 8002262:	615a      	str	r2, [r3, #20]
 8002264:	4b11      	ldr	r3, [pc, #68]	; (80022ac <MX_SPI3_Init+0x74>)
 8002266:	f44f 7200 	mov.w	r2, #512	; 0x200
 800226a:	619a      	str	r2, [r3, #24]
 800226c:	4b0f      	ldr	r3, [pc, #60]	; (80022ac <MX_SPI3_Init+0x74>)
 800226e:	2218      	movs	r2, #24
 8002270:	61da      	str	r2, [r3, #28]
 8002272:	4b0e      	ldr	r3, [pc, #56]	; (80022ac <MX_SPI3_Init+0x74>)
 8002274:	2200      	movs	r2, #0
 8002276:	621a      	str	r2, [r3, #32]
 8002278:	4b0c      	ldr	r3, [pc, #48]	; (80022ac <MX_SPI3_Init+0x74>)
 800227a:	2200      	movs	r2, #0
 800227c:	625a      	str	r2, [r3, #36]	; 0x24
 800227e:	4b0b      	ldr	r3, [pc, #44]	; (80022ac <MX_SPI3_Init+0x74>)
 8002280:	2200      	movs	r2, #0
 8002282:	629a      	str	r2, [r3, #40]	; 0x28
 8002284:	4b09      	ldr	r3, [pc, #36]	; (80022ac <MX_SPI3_Init+0x74>)
 8002286:	2207      	movs	r2, #7
 8002288:	62da      	str	r2, [r3, #44]	; 0x2c
 800228a:	4b08      	ldr	r3, [pc, #32]	; (80022ac <MX_SPI3_Init+0x74>)
 800228c:	2200      	movs	r2, #0
 800228e:	631a      	str	r2, [r3, #48]	; 0x30
 8002290:	4b06      	ldr	r3, [pc, #24]	; (80022ac <MX_SPI3_Init+0x74>)
 8002292:	2208      	movs	r2, #8
 8002294:	635a      	str	r2, [r3, #52]	; 0x34
 8002296:	4805      	ldr	r0, [pc, #20]	; (80022ac <MX_SPI3_Init+0x74>)
 8002298:	f005 ff73 	bl	8008182 <HAL_SPI_Init>
 800229c:	4603      	mov	r3, r0
 800229e:	2b00      	cmp	r3, #0
 80022a0:	d001      	beq.n	80022a6 <MX_SPI3_Init+0x6e>
 80022a2:	f7ff fee1 	bl	8002068 <Error_Handler>
 80022a6:	bf00      	nop
 80022a8:	bd80      	pop	{r7, pc}
 80022aa:	bf00      	nop
 80022ac:	2000333c 	andcs	r3, r0, ip, lsr r3
 80022b0:	40003c00 	andmi	r3, r0, r0, lsl #24

080022b4 <MX_RTC_Init>:
 80022b4:	b580      	push	{r7, lr}
 80022b6:	b086      	sub	sp, #24
 80022b8:	af00      	add	r7, sp, #0
 80022ba:	1d3b      	adds	r3, r7, #4
 80022bc:	2200      	movs	r2, #0
 80022be:	601a      	str	r2, [r3, #0]
 80022c0:	605a      	str	r2, [r3, #4]
 80022c2:	609a      	str	r2, [r3, #8]
 80022c4:	60da      	str	r2, [r3, #12]
 80022c6:	611a      	str	r2, [r3, #16]
 80022c8:	2300      	movs	r3, #0
 80022ca:	603b      	str	r3, [r7, #0]
 80022cc:	4b2d      	ldr	r3, [pc, #180]	; (8002384 <MX_RTC_Init+0xd0>)
 80022ce:	4a2e      	ldr	r2, [pc, #184]	; (8002388 <MX_RTC_Init+0xd4>)
 80022d0:	601a      	str	r2, [r3, #0]
 80022d2:	4b2c      	ldr	r3, [pc, #176]	; (8002384 <MX_RTC_Init+0xd0>)
 80022d4:	2200      	movs	r2, #0
 80022d6:	605a      	str	r2, [r3, #4]
 80022d8:	4b2a      	ldr	r3, [pc, #168]	; (8002384 <MX_RTC_Init+0xd0>)
 80022da:	227f      	movs	r2, #127	; 0x7f
 80022dc:	609a      	str	r2, [r3, #8]
 80022de:	4b29      	ldr	r3, [pc, #164]	; (8002384 <MX_RTC_Init+0xd0>)
 80022e0:	22ff      	movs	r2, #255	; 0xff
 80022e2:	60da      	str	r2, [r3, #12]
 80022e4:	4b27      	ldr	r3, [pc, #156]	; (8002384 <MX_RTC_Init+0xd0>)
 80022e6:	2200      	movs	r2, #0
 80022e8:	611a      	str	r2, [r3, #16]
 80022ea:	4b26      	ldr	r3, [pc, #152]	; (8002384 <MX_RTC_Init+0xd0>)
 80022ec:	2200      	movs	r2, #0
 80022ee:	615a      	str	r2, [r3, #20]
 80022f0:	4b24      	ldr	r3, [pc, #144]	; (8002384 <MX_RTC_Init+0xd0>)
 80022f2:	2200      	movs	r2, #0
 80022f4:	619a      	str	r2, [r3, #24]
 80022f6:	4b23      	ldr	r3, [pc, #140]	; (8002384 <MX_RTC_Init+0xd0>)
 80022f8:	2200      	movs	r2, #0
 80022fa:	61da      	str	r2, [r3, #28]
 80022fc:	4821      	ldr	r0, [pc, #132]	; (8002384 <MX_RTC_Init+0xd0>)
 80022fe:	f005 fbf5 	bl	8007aec <HAL_RTC_Init>
 8002302:	4603      	mov	r3, r0
 8002304:	2b00      	cmp	r3, #0
 8002306:	d001      	beq.n	800230c <MX_RTC_Init+0x58>
 8002308:	f7ff feae 	bl	8002068 <Error_Handler>
 800230c:	2101      	movs	r1, #1
 800230e:	481d      	ldr	r0, [pc, #116]	; (8002384 <MX_RTC_Init+0xd0>)
 8002310:	f005 ff21 	bl	8008156 <HAL_RTCEx_BKUPRead>
 8002314:	4603      	mov	r3, r0
 8002316:	f245 0251 	movw	r2, #20561	; 0x5051
 800231a:	4293      	cmp	r3, r2
 800231c:	d02d      	beq.n	800237a <MX_RTC_Init+0xc6>
 800231e:	2300      	movs	r3, #0
 8002320:	713b      	strb	r3, [r7, #4]
 8002322:	2335      	movs	r3, #53	; 0x35
 8002324:	717b      	strb	r3, [r7, #5]
 8002326:	2300      	movs	r3, #0
 8002328:	71bb      	strb	r3, [r7, #6]
 800232a:	2300      	movs	r3, #0
 800232c:	613b      	str	r3, [r7, #16]
 800232e:	2300      	movs	r3, #0
 8002330:	617b      	str	r3, [r7, #20]
 8002332:	1d3b      	adds	r3, r7, #4
 8002334:	2201      	movs	r2, #1
 8002336:	4619      	mov	r1, r3
 8002338:	4812      	ldr	r0, [pc, #72]	; (8002384 <MX_RTC_Init+0xd0>)
 800233a:	f005 fc55 	bl	8007be8 <HAL_RTC_SetTime>
 800233e:	4603      	mov	r3, r0
 8002340:	2b00      	cmp	r3, #0
 8002342:	d001      	beq.n	8002348 <MX_RTC_Init+0x94>
 8002344:	f7ff fe90 	bl	8002068 <Error_Handler>
 8002348:	2307      	movs	r3, #7
 800234a:	703b      	strb	r3, [r7, #0]
 800234c:	2304      	movs	r3, #4
 800234e:	707b      	strb	r3, [r7, #1]
 8002350:	2316      	movs	r3, #22
 8002352:	70bb      	strb	r3, [r7, #2]
 8002354:	2323      	movs	r3, #35	; 0x23
 8002356:	70fb      	strb	r3, [r7, #3]
 8002358:	463b      	mov	r3, r7
 800235a:	2201      	movs	r2, #1
 800235c:	4619      	mov	r1, r3
 800235e:	4809      	ldr	r0, [pc, #36]	; (8002384 <MX_RTC_Init+0xd0>)
 8002360:	f005 fd3b 	bl	8007dda <HAL_RTC_SetDate>
 8002364:	4603      	mov	r3, r0
 8002366:	2b00      	cmp	r3, #0
 8002368:	d001      	beq.n	800236e <MX_RTC_Init+0xba>
 800236a:	f7ff fe7d 	bl	8002068 <Error_Handler>
 800236e:	f245 0251 	movw	r2, #20561	; 0x5051
 8002372:	2101      	movs	r1, #1
 8002374:	4803      	ldr	r0, [pc, #12]	; (8002384 <MX_RTC_Init+0xd0>)
 8002376:	f005 fed5 	bl	8008124 <HAL_RTCEx_BKUPWrite>
 800237a:	bf00      	nop
 800237c:	3718      	adds	r7, #24
 800237e:	46bd      	mov	sp, r7
 8002380:	bd80      	pop	{r7, pc}
 8002382:	bf00      	nop
 8002384:	200034a0 	andcs	r3, r0, r0, lsr #9
 8002388:	40002800 	andmi	r2, r0, r0, lsl #16

0800238c <hal_Init>:
 800238c:	b580      	push	{r7, lr}
 800238e:	b098      	sub	sp, #96	; 0x60
 8002390:	af00      	add	r7, sp, #0
 8002392:	4b95      	ldr	r3, [pc, #596]	; (80025e8 <hal_Init+0x25c>)
 8002394:	6cdb      	ldr	r3, [r3, #76]	; 0x4c
 8002396:	4a94      	ldr	r2, [pc, #592]	; (80025e8 <hal_Init+0x25c>)
 8002398:	f043 0302 	orr.w	r3, r3, #2
 800239c:	64d3      	str	r3, [r2, #76]	; 0x4c
 800239e:	4b92      	ldr	r3, [pc, #584]	; (80025e8 <hal_Init+0x25c>)
 80023a0:	6cdb      	ldr	r3, [r3, #76]	; 0x4c
 80023a2:	f003 0302 	and.w	r3, r3, #2
 80023a6:	60fb      	str	r3, [r7, #12]
 80023a8:	68fb      	ldr	r3, [r7, #12]
 80023aa:	4b8f      	ldr	r3, [pc, #572]	; (80025e8 <hal_Init+0x25c>)
 80023ac:	6cdb      	ldr	r3, [r3, #76]	; 0x4c
 80023ae:	4a8e      	ldr	r2, [pc, #568]	; (80025e8 <hal_Init+0x25c>)
 80023b0:	f043 0304 	orr.w	r3, r3, #4
 80023b4:	64d3      	str	r3, [r2, #76]	; 0x4c
 80023b6:	4b8c      	ldr	r3, [pc, #560]	; (80025e8 <hal_Init+0x25c>)
 80023b8:	6cdb      	ldr	r3, [r3, #76]	; 0x4c
 80023ba:	f003 0304 	and.w	r3, r3, #4
 80023be:	60bb      	str	r3, [r7, #8]
 80023c0:	68bb      	ldr	r3, [r7, #8]
 80023c2:	4b89      	ldr	r3, [pc, #548]	; (80025e8 <hal_Init+0x25c>)
 80023c4:	6cdb      	ldr	r3, [r3, #76]	; 0x4c
 80023c6:	4a88      	ldr	r2, [pc, #544]	; (80025e8 <hal_Init+0x25c>)
 80023c8:	f043 0308 	orr.w	r3, r3, #8
 80023cc:	64d3      	str	r3, [r2, #76]	; 0x4c
 80023ce:	4b86      	ldr	r3, [pc, #536]	; (80025e8 <hal_Init+0x25c>)
 80023d0:	6cdb      	ldr	r3, [r3, #76]	; 0x4c
 80023d2:	f003 0308 	and.w	r3, r3, #8
 80023d6:	607b      	str	r3, [r7, #4]
 80023d8:	687b      	ldr	r3, [r7, #4]
 80023da:	2004      	movs	r0, #4
 80023dc:	f002 ffec 	bl	80053b8 <HAL_NVIC_SetPriorityGrouping>
 80023e0:	f107 034c 	add.w	r3, r7, #76	; 0x4c
 80023e4:	2200      	movs	r2, #0
 80023e6:	601a      	str	r2, [r3, #0]
 80023e8:	605a      	str	r2, [r3, #4]
 80023ea:	609a      	str	r2, [r3, #8]
 80023ec:	60da      	str	r2, [r3, #12]
 80023ee:	611a      	str	r2, [r3, #16]
 80023f0:	2307      	movs	r3, #7
 80023f2:	65fb      	str	r3, [r7, #92]	; 0x5c
 80023f4:	23c0      	movs	r3, #192	; 0xc0
 80023f6:	64fb      	str	r3, [r7, #76]	; 0x4c
 80023f8:	2302      	movs	r3, #2
 80023fa:	653b      	str	r3, [r7, #80]	; 0x50
 80023fc:	2300      	movs	r3, #0
 80023fe:	657b      	str	r3, [r7, #84]	; 0x54
 8002400:	2303      	movs	r3, #3
 8002402:	65bb      	str	r3, [r7, #88]	; 0x58
 8002404:	f107 034c 	add.w	r3, r7, #76	; 0x4c
 8002408:	4619      	mov	r1, r3
 800240a:	4878      	ldr	r0, [pc, #480]	; (80025ec <hal_Init+0x260>)
 800240c:	f003 f824 	bl	8005458 <HAL_GPIO_Init>
 8002410:	f107 0338 	add.w	r3, r7, #56	; 0x38
 8002414:	2200      	movs	r2, #0
 8002416:	601a      	str	r2, [r3, #0]
 8002418:	605a      	str	r2, [r3, #4]
 800241a:	609a      	str	r2, [r3, #8]
 800241c:	60da      	str	r2, [r3, #12]
 800241e:	611a      	str	r2, [r3, #16]
 8002420:	f44f 4380 	mov.w	r3, #16384	; 0x4000
 8002424:	63bb      	str	r3, [r7, #56]	; 0x38
 8002426:	2301      	movs	r3, #1
 8002428:	63fb      	str	r3, [r7, #60]	; 0x3c
 800242a:	2300      	movs	r3, #0
 800242c:	643b      	str	r3, [r7, #64]	; 0x40
 800242e:	2300      	movs	r3, #0
 8002430:	647b      	str	r3, [r7, #68]	; 0x44
 8002432:	f107 0338 	add.w	r3, r7, #56	; 0x38
 8002436:	4619      	mov	r1, r3
 8002438:	486c      	ldr	r0, [pc, #432]	; (80025ec <hal_Init+0x260>)
 800243a:	f003 f80d 	bl	8005458 <HAL_GPIO_Init>
 800243e:	f107 0324 	add.w	r3, r7, #36	; 0x24
 8002442:	2200      	movs	r2, #0
 8002444:	601a      	str	r2, [r3, #0]
 8002446:	605a      	str	r2, [r3, #4]
 8002448:	609a      	str	r2, [r3, #8]
 800244a:	60da      	str	r2, [r3, #12]
 800244c:	611a      	str	r2, [r3, #16]
 800244e:	f44f 5300 	mov.w	r3, #8192	; 0x2000
 8002452:	627b      	str	r3, [r7, #36]	; 0x24
 8002454:	4b66      	ldr	r3, [pc, #408]	; (80025f0 <hal_Init+0x264>)
 8002456:	62bb      	str	r3, [r7, #40]	; 0x28
 8002458:	2300      	movs	r3, #0
 800245a:	62fb      	str	r3, [r7, #44]	; 0x2c
 800245c:	f107 0324 	add.w	r3, r7, #36	; 0x24
 8002460:	4619      	mov	r1, r3
 8002462:	4864      	ldr	r0, [pc, #400]	; (80025f4 <hal_Init+0x268>)
 8002464:	f002 fff8 	bl	8005458 <HAL_GPIO_Init>
 8002468:	f107 0310 	add.w	r3, r7, #16
 800246c:	2200      	movs	r2, #0
 800246e:	601a      	str	r2, [r3, #0]
 8002470:	605a      	str	r2, [r3, #4]
 8002472:	609a      	str	r2, [r3, #8]
 8002474:	60da      	str	r2, [r3, #12]
 8002476:	611a      	str	r2, [r3, #16]
 8002478:	f44f 6300 	mov.w	r3, #2048	; 0x800
 800247c:	613b      	str	r3, [r7, #16]
 800247e:	4b5e      	ldr	r3, [pc, #376]	; (80025f8 <hal_Init+0x26c>)
 8002480:	617b      	str	r3, [r7, #20]
 8002482:	2300      	movs	r3, #0
 8002484:	61bb      	str	r3, [r7, #24]
 8002486:	f107 0310 	add.w	r3, r7, #16
 800248a:	4619      	mov	r1, r3
 800248c:	485b      	ldr	r0, [pc, #364]	; (80025fc <hal_Init+0x270>)
 800248e:	f002 ffe3 	bl	8005458 <HAL_GPIO_Init>
 8002492:	f44f 6380 	mov.w	r3, #1024	; 0x400
 8002496:	613b      	str	r3, [r7, #16]
 8002498:	4b57      	ldr	r3, [pc, #348]	; (80025f8 <hal_Init+0x26c>)
 800249a:	617b      	str	r3, [r7, #20]
 800249c:	2300      	movs	r3, #0
 800249e:	61bb      	str	r3, [r7, #24]
 80024a0:	f107 0310 	add.w	r3, r7, #16
 80024a4:	4619      	mov	r1, r3
 80024a6:	4855      	ldr	r0, [pc, #340]	; (80025fc <hal_Init+0x270>)
 80024a8:	f002 ffd6 	bl	8005458 <HAL_GPIO_Init>
 80024ac:	f44f 4300 	mov.w	r3, #32768	; 0x8000
 80024b0:	613b      	str	r3, [r7, #16]
 80024b2:	4b51      	ldr	r3, [pc, #324]	; (80025f8 <hal_Init+0x26c>)
 80024b4:	617b      	str	r3, [r7, #20]
 80024b6:	2300      	movs	r3, #0
 80024b8:	61bb      	str	r3, [r7, #24]
 80024ba:	f107 0310 	add.w	r3, r7, #16
 80024be:	4619      	mov	r1, r3
 80024c0:	484e      	ldr	r0, [pc, #312]	; (80025fc <hal_Init+0x270>)
 80024c2:	f002 ffc9 	bl	8005458 <HAL_GPIO_Init>
 80024c6:	2028      	movs	r0, #40	; 0x28
 80024c8:	f002 ff9d 	bl	8005406 <HAL_NVIC_EnableIRQ>
 80024cc:	2200      	movs	r2, #0
 80024ce:	2102      	movs	r1, #2
 80024d0:	2028      	movs	r0, #40	; 0x28
 80024d2:	f002 ff7c 	bl	80053ce <HAL_NVIC_SetPriority>
 80024d6:	f44f 7380 	mov.w	r3, #256	; 0x100
 80024da:	613b      	str	r3, [r7, #16]
 80024dc:	4b46      	ldr	r3, [pc, #280]	; (80025f8 <hal_Init+0x26c>)
 80024de:	617b      	str	r3, [r7, #20]
 80024e0:	2300      	movs	r3, #0
 80024e2:	61bb      	str	r3, [r7, #24]
 80024e4:	f107 0310 	add.w	r3, r7, #16
 80024e8:	4619      	mov	r1, r3
 80024ea:	4842      	ldr	r0, [pc, #264]	; (80025f4 <hal_Init+0x268>)
 80024ec:	f002 ffb4 	bl	8005458 <HAL_GPIO_Init>
 80024f0:	2201      	movs	r2, #1
 80024f2:	2103      	movs	r1, #3
 80024f4:	2017      	movs	r0, #23
 80024f6:	f002 ff6a 	bl	80053ce <HAL_NVIC_SetPriority>
 80024fa:	4b41      	ldr	r3, [pc, #260]	; (8002600 <hal_Init+0x274>)
 80024fc:	4a41      	ldr	r2, [pc, #260]	; (8002604 <hal_Init+0x278>)
 80024fe:	601a      	str	r2, [r3, #0]
 8002500:	4b3f      	ldr	r3, [pc, #252]	; (8002600 <hal_Init+0x274>)
 8002502:	f44f 32e1 	mov.w	r2, #115200	; 0x1c200
 8002506:	605a      	str	r2, [r3, #4]
 8002508:	4b3d      	ldr	r3, [pc, #244]	; (8002600 <hal_Init+0x274>)
 800250a:	2200      	movs	r2, #0
 800250c:	609a      	str	r2, [r3, #8]
 800250e:	4b3c      	ldr	r3, [pc, #240]	; (8002600 <hal_Init+0x274>)
 8002510:	2200      	movs	r2, #0
 8002512:	60da      	str	r2, [r3, #12]
 8002514:	4b3a      	ldr	r3, [pc, #232]	; (8002600 <hal_Init+0x274>)
 8002516:	2200      	movs	r2, #0
 8002518:	611a      	str	r2, [r3, #16]
 800251a:	4b39      	ldr	r3, [pc, #228]	; (8002600 <hal_Init+0x274>)
 800251c:	220c      	movs	r2, #12
 800251e:	615a      	str	r2, [r3, #20]
 8002520:	4b37      	ldr	r3, [pc, #220]	; (8002600 <hal_Init+0x274>)
 8002522:	2200      	movs	r2, #0
 8002524:	619a      	str	r2, [r3, #24]
 8002526:	4b36      	ldr	r3, [pc, #216]	; (8002600 <hal_Init+0x274>)
 8002528:	2200      	movs	r2, #0
 800252a:	61da      	str	r2, [r3, #28]
 800252c:	4b34      	ldr	r3, [pc, #208]	; (8002600 <hal_Init+0x274>)
 800252e:	2200      	movs	r2, #0
 8002530:	621a      	str	r2, [r3, #32]
 8002532:	4b33      	ldr	r3, [pc, #204]	; (8002600 <hal_Init+0x274>)
 8002534:	2200      	movs	r2, #0
 8002536:	625a      	str	r2, [r3, #36]	; 0x24
 8002538:	4831      	ldr	r0, [pc, #196]	; (8002600 <hal_Init+0x274>)
 800253a:	f006 ff97 	bl	800946c <HAL_UART_Init>
 800253e:	4603      	mov	r3, r0
 8002540:	2b00      	cmp	r3, #0
 8002542:	d000      	beq.n	8002546 <hal_Init+0x1ba>
 8002544:	e7fe      	b.n	8002544 <hal_Init+0x1b8>
 8002546:	4b30      	ldr	r3, [pc, #192]	; (8002608 <hal_Init+0x27c>)
 8002548:	4a30      	ldr	r2, [pc, #192]	; (800260c <hal_Init+0x280>)
 800254a:	601a      	str	r2, [r3, #0]
 800254c:	4b2e      	ldr	r3, [pc, #184]	; (8002608 <hal_Init+0x27c>)
 800254e:	f240 321f 	movw	r2, #799	; 0x31f
 8002552:	605a      	str	r2, [r3, #4]
 8002554:	4b2c      	ldr	r3, [pc, #176]	; (8002608 <hal_Init+0x27c>)
 8002556:	2200      	movs	r2, #0
 8002558:	609a      	str	r2, [r3, #8]
 800255a:	4b2b      	ldr	r3, [pc, #172]	; (8002608 <hal_Init+0x27c>)
 800255c:	2200      	movs	r2, #0
 800255e:	611a      	str	r2, [r3, #16]
 8002560:	4b29      	ldr	r3, [pc, #164]	; (8002608 <hal_Init+0x27c>)
 8002562:	2280      	movs	r2, #128	; 0x80
 8002564:	619a      	str	r2, [r3, #24]
 8002566:	4b2a      	ldr	r3, [pc, #168]	; (8002610 <hal_Init+0x284>)
 8002568:	f04f 4280 	mov.w	r2, #1073741824	; 0x40000000
 800256c:	601a      	str	r2, [r3, #0]
 800256e:	4b28      	ldr	r3, [pc, #160]	; (8002610 <hal_Init+0x284>)
 8002570:	f641 723f 	movw	r2, #7999	; 0x1f3f
 8002574:	605a      	str	r2, [r3, #4]
 8002576:	4b26      	ldr	r3, [pc, #152]	; (8002610 <hal_Init+0x284>)
 8002578:	2200      	movs	r2, #0
 800257a:	609a      	str	r2, [r3, #8]
 800257c:	4b24      	ldr	r3, [pc, #144]	; (8002610 <hal_Init+0x284>)
 800257e:	2264      	movs	r2, #100	; 0x64
 8002580:	60da      	str	r2, [r3, #12]
 8002582:	4b23      	ldr	r3, [pc, #140]	; (8002610 <hal_Init+0x284>)
 8002584:	2200      	movs	r2, #0
 8002586:	611a      	str	r2, [r3, #16]
 8002588:	4b21      	ldr	r3, [pc, #132]	; (8002610 <hal_Init+0x284>)
 800258a:	2280      	movs	r2, #128	; 0x80
 800258c:	619a      	str	r2, [r3, #24]
 800258e:	4820      	ldr	r0, [pc, #128]	; (8002610 <hal_Init+0x284>)
 8002590:	f006 fc97 	bl	8008ec2 <HAL_TIM_Base_Init>
 8002594:	4b1f      	ldr	r3, [pc, #124]	; (8002614 <hal_Init+0x288>)
 8002596:	4a20      	ldr	r2, [pc, #128]	; (8002618 <hal_Init+0x28c>)
 8002598:	601a      	str	r2, [r3, #0]
 800259a:	4b1e      	ldr	r3, [pc, #120]	; (8002614 <hal_Init+0x288>)
 800259c:	2200      	movs	r2, #0
 800259e:	609a      	str	r2, [r3, #8]
 80025a0:	4b1c      	ldr	r3, [pc, #112]	; (8002614 <hal_Init+0x288>)
 80025a2:	f641 723f 	movw	r2, #7999	; 0x1f3f
 80025a6:	605a      	str	r2, [r3, #4]
 80025a8:	4b1a      	ldr	r3, [pc, #104]	; (8002614 <hal_Init+0x288>)
 80025aa:	2200      	movs	r2, #0
 80025ac:	609a      	str	r2, [r3, #8]
 80025ae:	4b19      	ldr	r3, [pc, #100]	; (8002614 <hal_Init+0x288>)
 80025b0:	2200      	movs	r2, #0
 80025b2:	611a      	str	r2, [r3, #16]
 80025b4:	4b17      	ldr	r3, [pc, #92]	; (8002614 <hal_Init+0x288>)
 80025b6:	2280      	movs	r2, #128	; 0x80
 80025b8:	619a      	str	r2, [r3, #24]
 80025ba:	4b16      	ldr	r3, [pc, #88]	; (8002614 <hal_Init+0x288>)
 80025bc:	f64f 72ff 	movw	r2, #65535	; 0xffff
 80025c0:	60da      	str	r2, [r3, #12]
 80025c2:	4814      	ldr	r0, [pc, #80]	; (8002614 <hal_Init+0x288>)
 80025c4:	f006 fc7d 	bl	8008ec2 <HAL_TIM_Base_Init>
 80025c8:	2200      	movs	r2, #0
 80025ca:	f44f 4180 	mov.w	r1, #16384	; 0x4000
 80025ce:	4807      	ldr	r0, [pc, #28]	; (80025ec <hal_Init+0x260>)
 80025d0:	f003 f9f8 	bl	80059c4 <HAL_GPIO_WritePin>
 80025d4:	f7ff fdce 	bl	8002174 <MX_GPIO_Init>
 80025d8:	f7ff fe2e 	bl	8002238 <MX_SPI3_Init>
 80025dc:	f7ff fe6a 	bl	80022b4 <MX_RTC_Init>
 80025e0:	bf00      	nop
 80025e2:	3760      	adds	r7, #96	; 0x60
 80025e4:	46bd      	mov	sp, r7
 80025e6:	bd80      	pop	{r7, pc}
 80025e8:	40021000 	andmi	r1, r2, r0
 80025ec:	48000400 	stmdami	r0, {sl}
 80025f0:	10210000 	eorne	r0, r1, r0
 80025f4:	48000800 	stmdami	r0, {fp}
 80025f8:	10110000 	andsne	r0, r1, r0
 80025fc:	48000c00 	stmdami	r0, {sl, fp}
 8002600:	200033a0 	andcs	r3, r0, r0, lsr #7
 8002604:	40013800 	andmi	r3, r1, r0, lsl #16
 8002608:	20003420 	andcs	r3, r0, r0, lsr #8
 800260c:	40012c00 	andmi	r2, r1, r0, lsl #24
 8002610:	20003460 	andcs	r3, r0, r0, ror #8
 8002614:	200034c4 	andcs	r3, r0, r4, asr #9
 8002618:	40000800 	andmi	r0, r0, r0, lsl #16

0800261c <HAL_TIM_Base_MspInit>:
 800261c:	b580      	push	{r7, lr}
 800261e:	b086      	sub	sp, #24
 8002620:	af00      	add	r7, sp, #0
 8002622:	6078      	str	r0, [r7, #4]
 8002624:	687b      	ldr	r3, [r7, #4]
 8002626:	681b      	ldr	r3, [r3, #0]
 8002628:	4a23      	ldr	r2, [pc, #140]	; (80026b8 <HAL_TIM_Base_MspInit+0x9c>)
 800262a:	4293      	cmp	r3, r2
 800262c:	d114      	bne.n	8002658 <HAL_TIM_Base_MspInit+0x3c>
 800262e:	4b23      	ldr	r3, [pc, #140]	; (80026bc <HAL_TIM_Base_MspInit+0xa0>)
 8002630:	6e1b      	ldr	r3, [r3, #96]	; 0x60
 8002632:	4a22      	ldr	r2, [pc, #136]	; (80026bc <HAL_TIM_Base_MspInit+0xa0>)
 8002634:	f443 6300 	orr.w	r3, r3, #2048	; 0x800
 8002638:	6613      	str	r3, [r2, #96]	; 0x60
 800263a:	4b20      	ldr	r3, [pc, #128]	; (80026bc <HAL_TIM_Base_MspInit+0xa0>)
 800263c:	6e1b      	ldr	r3, [r3, #96]	; 0x60
 800263e:	f403 6300 	and.w	r3, r3, #2048	; 0x800
 8002642:	617b      	str	r3, [r7, #20]
 8002644:	697b      	ldr	r3, [r7, #20]
 8002646:	2200      	movs	r2, #0
 8002648:	2103      	movs	r1, #3
 800264a:	2019      	movs	r0, #25
 800264c:	f002 febf 	bl	80053ce <HAL_NVIC_SetPriority>
 8002650:	2019      	movs	r0, #25
 8002652:	f002 fed8 	bl	8005406 <HAL_NVIC_EnableIRQ>
 8002656:	e02a      	b.n	80026ae <HAL_TIM_Base_MspInit+0x92>
 8002658:	687b      	ldr	r3, [r7, #4]
 800265a:	681b      	ldr	r3, [r3, #0]
 800265c:	f1b3 4f80 	cmp.w	r3, #1073741824	; 0x40000000
 8002660:	d114      	bne.n	800268c <HAL_TIM_Base_MspInit+0x70>
 8002662:	4b16      	ldr	r3, [pc, #88]	; (80026bc <HAL_TIM_Base_MspInit+0xa0>)
 8002664:	6d9b      	ldr	r3, [r3, #88]	; 0x58
 8002666:	4a15      	ldr	r2, [pc, #84]	; (80026bc <HAL_TIM_Base_MspInit+0xa0>)
 8002668:	f043 0301 	orr.w	r3, r3, #1
 800266c:	6593      	str	r3, [r2, #88]	; 0x58
 800266e:	4b13      	ldr	r3, [pc, #76]	; (80026bc <HAL_TIM_Base_MspInit+0xa0>)
 8002670:	6d9b      	ldr	r3, [r3, #88]	; 0x58
 8002672:	f003 0301 	and.w	r3, r3, #1
 8002676:	613b      	str	r3, [r7, #16]
 8002678:	693b      	ldr	r3, [r7, #16]
 800267a:	2200      	movs	r2, #0
 800267c:	2104      	movs	r1, #4
 800267e:	201c      	movs	r0, #28
 8002680:	f002 fea5 	bl	80053ce <HAL_NVIC_SetPriority>
 8002684:	201c      	movs	r0, #28
 8002686:	f002 febe 	bl	8005406 <HAL_NVIC_EnableIRQ>
 800268a:	e010      	b.n	80026ae <HAL_TIM_Base_MspInit+0x92>
 800268c:	687b      	ldr	r3, [r7, #4]
 800268e:	681b      	ldr	r3, [r3, #0]
 8002690:	4a0b      	ldr	r2, [pc, #44]	; (80026c0 <HAL_TIM_Base_MspInit+0xa4>)
 8002692:	4293      	cmp	r3, r2
 8002694:	d10b      	bne.n	80026ae <HAL_TIM_Base_MspInit+0x92>
 8002696:	4b09      	ldr	r3, [pc, #36]	; (80026bc <HAL_TIM_Base_MspInit+0xa0>)
 8002698:	6d9b      	ldr	r3, [r3, #88]	; 0x58
 800269a:	4a08      	ldr	r2, [pc, #32]	; (80026bc <HAL_TIM_Base_MspInit+0xa0>)
 800269c:	f043 0304 	orr.w	r3, r3, #4
 80026a0:	6593      	str	r3, [r2, #88]	; 0x58
 80026a2:	4b06      	ldr	r3, [pc, #24]	; (80026bc <HAL_TIM_Base_MspInit+0xa0>)
 80026a4:	6d9b      	ldr	r3, [r3, #88]	; 0x58
 80026a6:	f003 0304 	and.w	r3, r3, #4
 80026aa:	60fb      	str	r3, [r7, #12]
 80026ac:	68fb      	ldr	r3, [r7, #12]
 80026ae:	bf00      	nop
 80026b0:	3718      	adds	r7, #24
 80026b2:	46bd      	mov	sp, r7
 80026b4:	bd80      	pop	{r7, pc}
 80026b6:	bf00      	nop
 80026b8:	40012c00 	andmi	r2, r1, r0, lsl #24
 80026bc:	40021000 	andmi	r1, r2, r0
 80026c0:	40000800 	andmi	r0, r0, r0, lsl #16

080026c4 <HAL_TIM_PeriodElapsedCallback>:
 80026c4:	b580      	push	{r7, lr}
 80026c6:	b082      	sub	sp, #8
 80026c8:	af00      	add	r7, sp, #0
 80026ca:	6078      	str	r0, [r7, #4]
 80026cc:	687b      	ldr	r3, [r7, #4]
 80026ce:	681b      	ldr	r3, [r3, #0]
 80026d0:	4a0c      	ldr	r2, [pc, #48]	; (8002704 <HAL_TIM_PeriodElapsedCallback+0x40>)
 80026d2:	4293      	cmp	r3, r2
 80026d4:	d103      	bne.n	80026de <HAL_TIM_PeriodElapsedCallback+0x1a>
 80026d6:	4b0c      	ldr	r3, [pc, #48]	; (8002708 <HAL_TIM_PeriodElapsedCallback+0x44>)
 80026d8:	2201      	movs	r2, #1
 80026da:	601a      	str	r2, [r3, #0]
 80026dc:	e00d      	b.n	80026fa <HAL_TIM_PeriodElapsedCallback+0x36>
 80026de:	687b      	ldr	r3, [r7, #4]
 80026e0:	681b      	ldr	r3, [r3, #0]
 80026e2:	f1b3 4f80 	cmp.w	r3, #1073741824	; 0x40000000
 80026e6:	d108      	bne.n	80026fa <HAL_TIM_PeriodElapsedCallback+0x36>
 80026e8:	2200      	movs	r2, #0
 80026ea:	f44f 4180 	mov.w	r1, #16384	; 0x4000
 80026ee:	4807      	ldr	r0, [pc, #28]	; (800270c <HAL_TIM_PeriodElapsedCallback+0x48>)
 80026f0:	f003 f968 	bl	80059c4 <HAL_GPIO_WritePin>
 80026f4:	4806      	ldr	r0, [pc, #24]	; (8002710 <HAL_TIM_PeriodElapsedCallback+0x4c>)
 80026f6:	f006 fc8f 	bl	8009018 <HAL_TIM_Base_Stop_IT>
 80026fa:	bf00      	nop
 80026fc:	3708      	adds	r7, #8
 80026fe:	46bd      	mov	sp, r7
 8002700:	bd80      	pop	{r7, pc}
 8002702:	bf00      	nop
 8002704:	40012c00 	andmi	r2, r1, r0, lsl #24
 8002708:	20000c8c 	andcs	r0, r0, ip, lsl #25
 800270c:	48000400 	stmdami	r0, {sl}
 8002710:	20003460 	andcs	r3, r0, r0, ror #8

08002714 <TIM1_UP_TIM16_IRQHandler>:
 8002714:	b580      	push	{r7, lr}
 8002716:	af00      	add	r7, sp, #0
 8002718:	4802      	ldr	r0, [pc, #8]	; (8002724 <TIM1_UP_TIM16_IRQHandler+0x10>)
 800271a:	f006 fca8 	bl	800906e <HAL_TIM_IRQHandler>
 800271e:	bf00      	nop
 8002720:	bd80      	pop	{r7, pc}
 8002722:	bf00      	nop
 8002724:	20003420 	andcs	r3, r0, r0, lsr #8

08002728 <TIM2_IRQHandler>:
 8002728:	b580      	push	{r7, lr}
 800272a:	af00      	add	r7, sp, #0
 800272c:	4802      	ldr	r0, [pc, #8]	; (8002738 <TIM2_IRQHandler+0x10>)
 800272e:	f006 fc9e 	bl	800906e <HAL_TIM_IRQHandler>
 8002732:	bf00      	nop
 8002734:	bd80      	pop	{r7, pc}
 8002736:	bf00      	nop
 8002738:	20003460 	andcs	r3, r0, r0, ror #8

0800273c <AI_Init>:
 800273c:	b580      	push	{r7, lr}
 800273e:	b09c      	sub	sp, #112	; 0x70
 8002740:	af00      	add	r7, sp, #0
 8002742:	4b24      	ldr	r3, [pc, #144]	; (80027d4 <AI_Init+0x98>)
 8002744:	6c9b      	ldr	r3, [r3, #72]	; 0x48
 8002746:	4a23      	ldr	r2, [pc, #140]	; (80027d4 <AI_Init+0x98>)
 8002748:	f443 5380 	orr.w	r3, r3, #4096	; 0x1000
 800274c:	6493      	str	r3, [r2, #72]	; 0x48
 800274e:	4b21      	ldr	r3, [pc, #132]	; (80027d4 <AI_Init+0x98>)
 8002750:	6c9b      	ldr	r3, [r3, #72]	; 0x48
 8002752:	f403 5380 	and.w	r3, r3, #4096	; 0x1000
 8002756:	603b      	str	r3, [r7, #0]
 8002758:	683b      	ldr	r3, [r7, #0]
 800275a:	4b1f      	ldr	r3, [pc, #124]	; (80027d8 <AI_Init+0x9c>)
 800275c:	66bb      	str	r3, [r7, #104]	; 0x68
 800275e:	f107 0368 	add.w	r3, r7, #104	; 0x68
 8002762:	2200      	movs	r2, #0
 8002764:	4619      	mov	r1, r3
 8002766:	481d      	ldr	r0, [pc, #116]	; (80027dc <AI_Init+0xa0>)
 8002768:	f007 fd76 	bl	800a258 <ai_network_create_and_init>
 800276c:	4603      	mov	r3, r0
 800276e:	66fb      	str	r3, [r7, #108]	; 0x6c
 8002770:	f897 306c 	ldrb.w	r3, [r7, #108]	; 0x6c
 8002774:	2b00      	cmp	r3, #0
 8002776:	d017      	beq.n	80027a8 <AI_Init+0x6c>
 8002778:	f897 306c 	ldrb.w	r3, [r7, #108]	; 0x6c
 800277c:	461a      	mov	r2, r3
 800277e:	6efb      	ldr	r3, [r7, #108]	; 0x6c
 8002780:	f3c3 2317 	ubfx	r3, r3, #8, #24
 8002784:	1d38      	adds	r0, r7, #4
 8002786:	4916      	ldr	r1, [pc, #88]	; (80027e0 <AI_Init+0xa4>)
 8002788:	f00b fcbc 	bl	800e104 <siprintf>
 800278c:	1d3b      	adds	r3, r7, #4
 800278e:	4618      	mov	r0, r3
 8002790:	f7fd fd28 	bl	80001e4 <strlen>
 8002794:	4603      	mov	r3, r0
 8002796:	b29a      	uxth	r2, r3
 8002798:	1d39      	adds	r1, r7, #4
 800279a:	f64f 73ff 	movw	r3, #65535	; 0xffff
 800279e:	4811      	ldr	r0, [pc, #68]	; (80027e4 <AI_Init+0xa8>)
 80027a0:	f006 feb2 	bl	8009508 <HAL_UART_Transmit>
 80027a4:	f7ff fc60 	bl	8002068 <Error_Handler>
 80027a8:	4b0c      	ldr	r3, [pc, #48]	; (80027dc <AI_Init+0xa0>)
 80027aa:	681b      	ldr	r3, [r3, #0]
 80027ac:	2100      	movs	r1, #0
 80027ae:	4618      	mov	r0, r3
 80027b0:	f007 fdc6 	bl	800a340 <ai_network_inputs_get>
 80027b4:	4603      	mov	r3, r0
 80027b6:	4a0c      	ldr	r2, [pc, #48]	; (80027e8 <AI_Init+0xac>)
 80027b8:	6013      	str	r3, [r2, #0]
 80027ba:	4b08      	ldr	r3, [pc, #32]	; (80027dc <AI_Init+0xa0>)
 80027bc:	681b      	ldr	r3, [r3, #0]
 80027be:	2100      	movs	r1, #0
 80027c0:	4618      	mov	r0, r3
 80027c2:	f007 fdd7 	bl	800a374 <ai_network_outputs_get>
 80027c6:	4603      	mov	r3, r0
 80027c8:	4a08      	ldr	r2, [pc, #32]	; (80027ec <AI_Init+0xb0>)
 80027ca:	6013      	str	r3, [r2, #0]
 80027cc:	bf00      	nop
 80027ce:	3770      	adds	r7, #112	; 0x70
 80027d0:	46bd      	mov	sp, r7
 80027d2:	bd80      	pop	{r7, pc}
 80027d4:	40021000 	andmi	r1, r2, r0
 80027d8:	2000364c 	andcs	r3, r0, ip, asr #12
 80027dc:	20003504 	andcs	r3, r0, r4, lsl #10
 80027e0:	080106ec 	stmdaeq	r1, {r2, r3, r5, r6, r7, r9, sl}
 80027e4:	200033a0 	andcs	r3, r0, r0, lsr #7
 80027e8:	20003cf8 	strdcs	r3, [r0], -r8
 80027ec:	20003cfc 	strdcs	r3, [r0], -ip

080027f0 <AI_Run>:
 80027f0:	b580      	push	{r7, lr}
 80027f2:	b09e      	sub	sp, #120	; 0x78
 80027f4:	af00      	add	r7, sp, #0
 80027f6:	6078      	str	r0, [r7, #4]
 80027f8:	6039      	str	r1, [r7, #0]
 80027fa:	4b1d      	ldr	r3, [pc, #116]	; (8002870 <AI_Run+0x80>)
 80027fc:	681b      	ldr	r3, [r3, #0]
 80027fe:	687a      	ldr	r2, [r7, #4]
 8002800:	605a      	str	r2, [r3, #4]
 8002802:	4b1c      	ldr	r3, [pc, #112]	; (8002874 <AI_Run+0x84>)
 8002804:	681b      	ldr	r3, [r3, #0]
 8002806:	683a      	ldr	r2, [r7, #0]
 8002808:	605a      	str	r2, [r3, #4]
 800280a:	4b1b      	ldr	r3, [pc, #108]	; (8002878 <AI_Run+0x88>)
 800280c:	681b      	ldr	r3, [r3, #0]
 800280e:	4a18      	ldr	r2, [pc, #96]	; (8002870 <AI_Run+0x80>)
 8002810:	6811      	ldr	r1, [r2, #0]
 8002812:	4a18      	ldr	r2, [pc, #96]	; (8002874 <AI_Run+0x84>)
 8002814:	6812      	ldr	r2, [r2, #0]
 8002816:	4618      	mov	r0, r3
 8002818:	f007 fe02 	bl	800a420 <ai_network_run>
 800281c:	6778      	str	r0, [r7, #116]	; 0x74
 800281e:	6f7b      	ldr	r3, [r7, #116]	; 0x74
 8002820:	2b01      	cmp	r3, #1
 8002822:	d021      	beq.n	8002868 <AI_Run+0x78>
 8002824:	4b14      	ldr	r3, [pc, #80]	; (8002878 <AI_Run+0x88>)
 8002826:	681b      	ldr	r3, [r3, #0]
 8002828:	4618      	mov	r0, r3
 800282a:	f007 fcf3 	bl	800a214 <ai_network_get_error>
 800282e:	4603      	mov	r3, r0
 8002830:	673b      	str	r3, [r7, #112]	; 0x70
 8002832:	f897 3070 	ldrb.w	r3, [r7, #112]	; 0x70
 8002836:	461a      	mov	r2, r3
 8002838:	6f3b      	ldr	r3, [r7, #112]	; 0x70
 800283a:	f3c3 2317 	ubfx	r3, r3, #8, #24
 800283e:	f107 000c 	add.w	r0, r7, #12
 8002842:	490e      	ldr	r1, [pc, #56]	; (800287c <AI_Run+0x8c>)
 8002844:	f00b fc5e 	bl	800e104 <siprintf>
 8002848:	f107 030c 	add.w	r3, r7, #12
 800284c:	4618      	mov	r0, r3
 800284e:	f7fd fcc9 	bl	80001e4 <strlen>
 8002852:	4603      	mov	r3, r0
 8002854:	b29a      	uxth	r2, r3
 8002856:	f107 010c 	add.w	r1, r7, #12
 800285a:	f64f 73ff 	movw	r3, #65535	; 0xffff
 800285e:	4808      	ldr	r0, [pc, #32]	; (8002880 <AI_Run+0x90>)
 8002860:	f006 fe52 	bl	8009508 <HAL_UART_Transmit>
 8002864:	f7ff fc00 	bl	8002068 <Error_Handler>
 8002868:	bf00      	nop
 800286a:	3778      	adds	r7, #120	; 0x78
 800286c:	46bd      	mov	sp, r7
 800286e:	bd80      	pop	{r7, pc}
 8002870:	20003cf8 	strdcs	r3, [r0], -r8
 8002874:	20003cfc 	strdcs	r3, [r0], -ip
 8002878:	20003504 	andcs	r3, r0, r4, lsl #10
 800287c:	080106ec 	stmdaeq	r1, {r2, r3, r5, r6, r7, r9, sl}
 8002880:	200033a0 	andcs	r3, r0, r0, lsr #7

08002884 <argmax>:
 8002884:	b480      	push	{r7}
 8002886:	b087      	sub	sp, #28
 8002888:	af00      	add	r7, sp, #0
 800288a:	6078      	str	r0, [r7, #4]
 800288c:	6039      	str	r1, [r7, #0]
 800288e:	687b      	ldr	r3, [r7, #4]
 8002890:	681b      	ldr	r3, [r3, #0]
 8002892:	617b      	str	r3, [r7, #20]
 8002894:	2300      	movs	r3, #0
 8002896:	613b      	str	r3, [r7, #16]
 8002898:	2301      	movs	r3, #1
 800289a:	60fb      	str	r3, [r7, #12]
 800289c:	e017      	b.n	80028ce <argmax+0x4a>
 800289e:	68fb      	ldr	r3, [r7, #12]
 80028a0:	009b      	lsls	r3, r3, #2
 80028a2:	687a      	ldr	r2, [r7, #4]
 80028a4:	4413      	add	r3, r2
 80028a6:	edd3 7a00 	vldr	s15, [r3]
 80028aa:	ed97 7a05 	vldr	s14, [r7, #20]
 80028ae:	eeb4 7ae7 	vcmpe.f32	s14, s15
 80028b2:	eef1 fa10 	vmrs	APSR_nzcv, fpscr
 80028b6:	d507      	bpl.n	80028c8 <argmax+0x44>
 80028b8:	68fb      	ldr	r3, [r7, #12]
 80028ba:	009b      	lsls	r3, r3, #2
 80028bc:	687a      	ldr	r2, [r7, #4]
 80028be:	4413      	add	r3, r2
 80028c0:	681b      	ldr	r3, [r3, #0]
 80028c2:	617b      	str	r3, [r7, #20]
 80028c4:	68fb      	ldr	r3, [r7, #12]
 80028c6:	613b      	str	r3, [r7, #16]
 80028c8:	68fb      	ldr	r3, [r7, #12]
 80028ca:	3301      	adds	r3, #1
 80028cc:	60fb      	str	r3, [r7, #12]
 80028ce:	68fa      	ldr	r2, [r7, #12]
 80028d0:	683b      	ldr	r3, [r7, #0]
 80028d2:	429a      	cmp	r2, r3
 80028d4:	d3e3      	bcc.n	800289e <argmax+0x1a>
 80028d6:	693b      	ldr	r3, [r7, #16]
 80028d8:	4618      	mov	r0, r3
 80028da:	371c      	adds	r7, #28
 80028dc:	46bd      	mov	sp, r7
 80028de:	f85d 7b04 	ldr.w	r7, [sp], #4
 80028e2:	4770      	bx	lr

080028e4 <WIFI_Init_main>:
 80028e4:	b580      	push	{r7, lr}
 80028e6:	af00      	add	r7, sp, #0
 80028e8:	4b0e      	ldr	r3, [pc, #56]	; (8002924 <WIFI_Init_main+0x40>)
 80028ea:	4a0f      	ldr	r2, [pc, #60]	; (8002928 <WIFI_Init_main+0x44>)
 80028ec:	601a      	str	r2, [r3, #0]
 80028ee:	4b0d      	ldr	r3, [pc, #52]	; (8002924 <WIFI_Init_main+0x40>)
 80028f0:	4a0e      	ldr	r2, [pc, #56]	; (800292c <WIFI_Init_main+0x48>)
 80028f2:	605a      	str	r2, [r3, #4]
 80028f4:	4b0b      	ldr	r3, [pc, #44]	; (8002924 <WIFI_Init_main+0x40>)
 80028f6:	4a0e      	ldr	r2, [pc, #56]	; (8002930 <WIFI_Init_main+0x4c>)
 80028f8:	609a      	str	r2, [r3, #8]
 80028fa:	4b0a      	ldr	r3, [pc, #40]	; (8002924 <WIFI_Init_main+0x40>)
 80028fc:	2203      	movs	r2, #3
 80028fe:	731a      	strb	r2, [r3, #12]
 8002900:	4b08      	ldr	r3, [pc, #32]	; (8002924 <WIFI_Init_main+0x40>)
 8002902:	2201      	movs	r2, #1
 8002904:	735a      	strb	r2, [r3, #13]
 8002906:	4b07      	ldr	r3, [pc, #28]	; (8002924 <WIFI_Init_main+0x40>)
 8002908:	2200      	movs	r2, #0
 800290a:	739a      	strb	r2, [r3, #14]
 800290c:	4b05      	ldr	r3, [pc, #20]	; (8002924 <WIFI_Init_main+0x40>)
 800290e:	2200      	movs	r2, #0
 8002910:	73da      	strb	r2, [r3, #15]
 8002912:	4b04      	ldr	r3, [pc, #16]	; (8002924 <WIFI_Init_main+0x40>)
 8002914:	f641 7290 	movw	r2, #8080	; 0x1f90
 8002918:	821a      	strh	r2, [r3, #16]
 800291a:	4802      	ldr	r0, [pc, #8]	; (8002924 <WIFI_Init_main+0x40>)
 800291c:	f000 feb2 	bl	8003684 <WIFI_Init>
 8002920:	bf00      	nop
 8002922:	bd80      	pop	{r7, pc}
 8002924:	20003d04 	andcs	r3, r0, r4, lsl #26
 8002928:	2000333c 	andcs	r3, r0, ip, lsr r3
 800292c:	20000018 	andcs	r0, r0, r8, lsl r0
 8002930:	20000028 	andcs	r0, r0, r8, lsr #32

08002934 <taskAcc>:
 8002934:	e92d 43f0 	stmdb	sp!, {r4, r5, r6, r7, r8, r9, lr}
 8002938:	b0a9      	sub	sp, #164	; 0xa4
 800293a:	af06      	add	r7, sp, #24
 800293c:	f107 036c 	add.w	r3, r7, #108	; 0x6c
 8002940:	4618      	mov	r0, r3
 8002942:	f001 fc13 	bl	800416c <BSP_ACCELERO_AccGetXYZ>
 8002946:	f9b7 306c 	ldrsh.w	r3, [r7, #108]	; 0x6c
 800294a:	4a86      	ldr	r2, [pc, #536]	; (8002b64 <taskAcc+0x230>)
 800294c:	fb82 1203 	smull	r1, r2, r2, r3
 8002950:	1152      	asrs	r2, r2, #5
 8002952:	17db      	asrs	r3, r3, #31
 8002954:	1ad3      	subs	r3, r2, r3
 8002956:	b21b      	sxth	r3, r3
 8002958:	ee07 3a90 	vmov	s15, r3
 800295c:	eef8 7ae7 	vcvt.f32.s32	s15, s15
 8002960:	edc7 7a1d 	vstr	s15, [r7, #116]	; 0x74
 8002964:	f9b7 306e 	ldrsh.w	r3, [r7, #110]	; 0x6e
 8002968:	4a7e      	ldr	r2, [pc, #504]	; (8002b64 <taskAcc+0x230>)
 800296a:	fb82 1203 	smull	r1, r2, r2, r3
 800296e:	1152      	asrs	r2, r2, #5
 8002970:	17db      	asrs	r3, r3, #31
 8002972:	1ad3      	subs	r3, r2, r3
 8002974:	b21b      	sxth	r3, r3
 8002976:	ee07 3a90 	vmov	s15, r3
 800297a:	eef8 7ae7 	vcvt.f32.s32	s15, s15
 800297e:	edc7 7a1e 	vstr	s15, [r7, #120]	; 0x78
 8002982:	f9b7 3070 	ldrsh.w	r3, [r7, #112]	; 0x70
 8002986:	4a77      	ldr	r2, [pc, #476]	; (8002b64 <taskAcc+0x230>)
 8002988:	fb82 1203 	smull	r1, r2, r2, r3
 800298c:	1152      	asrs	r2, r2, #5
 800298e:	17db      	asrs	r3, r3, #31
 8002990:	1ad3      	subs	r3, r2, r3
 8002992:	b21b      	sxth	r3, r3
 8002994:	ee07 3a90 	vmov	s15, r3
 8002998:	eef8 7ae7 	vcvt.f32.s32	s15, s15
 800299c:	edc7 7a1f 	vstr	s15, [r7, #124]	; 0x7c
 80029a0:	4b71      	ldr	r3, [pc, #452]	; (8002b68 <taskAcc+0x234>)
 80029a2:	681e      	ldr	r6, [r3, #0]
 80029a4:	4b71      	ldr	r3, [pc, #452]	; (8002b6c <taskAcc+0x238>)
 80029a6:	681b      	ldr	r3, [r3, #0]
 80029a8:	607b      	str	r3, [r7, #4]
 80029aa:	6f7b      	ldr	r3, [r7, #116]	; 0x74
 80029ac:	4618      	mov	r0, r3
 80029ae:	f7fd fddb 	bl	8000568 <__aeabi_f2d>
 80029b2:	4604      	mov	r4, r0
 80029b4:	460d      	mov	r5, r1
 80029b6:	6fbb      	ldr	r3, [r7, #120]	; 0x78
 80029b8:	4618      	mov	r0, r3
 80029ba:	f7fd fdd5 	bl	8000568 <__aeabi_f2d>
 80029be:	4680      	mov	r8, r0
 80029c0:	4689      	mov	r9, r1
 80029c2:	6ffb      	ldr	r3, [r7, #124]	; 0x7c
 80029c4:	4618      	mov	r0, r3
 80029c6:	f7fd fdcf 	bl	8000568 <__aeabi_f2d>
 80029ca:	4602      	mov	r2, r0
 80029cc:	460b      	mov	r3, r1
 80029ce:	f107 0008 	add.w	r0, r7, #8
 80029d2:	e9cd 2304 	strd	r2, r3, [sp, #16]
 80029d6:	e9cd 8902 	strd	r8, r9, [sp, #8]
 80029da:	e9cd 4500 	strd	r4, r5, [sp]
 80029de:	687b      	ldr	r3, [r7, #4]
 80029e0:	4632      	mov	r2, r6
 80029e2:	4963      	ldr	r1, [pc, #396]	; (8002b70 <taskAcc+0x23c>)
 80029e4:	f00b fb8e 	bl	800e104 <siprintf>
 80029e8:	f107 0308 	add.w	r3, r7, #8
 80029ec:	4618      	mov	r0, r3
 80029ee:	f7fd fbf9 	bl	80001e4 <strlen>
 80029f2:	4603      	mov	r3, r0
 80029f4:	b29a      	uxth	r2, r3
 80029f6:	f107 0108 	add.w	r1, r7, #8
 80029fa:	f64f 73ff 	movw	r3, #65535	; 0xffff
 80029fe:	485d      	ldr	r0, [pc, #372]	; (8002b74 <taskAcc+0x240>)
 8002a00:	f006 fd82 	bl	8009508 <HAL_UART_Transmit>
 8002a04:	f9b7 306c 	ldrsh.w	r3, [r7, #108]	; 0x6c
 8002a08:	ee07 3a90 	vmov	s15, r3
 8002a0c:	eeb8 7ae7 	vcvt.f32.s32	s14, s15
 8002a10:	4b59      	ldr	r3, [pc, #356]	; (8002b78 <taskAcc+0x244>)
 8002a12:	681b      	ldr	r3, [r3, #0]
 8002a14:	eddf 6a59 	vldr	s13, [pc, #356]	; 8002b7c <taskAcc+0x248>
 8002a18:	eec7 7a26 	vdiv.f32	s15, s14, s13
 8002a1c:	4a58      	ldr	r2, [pc, #352]	; (8002b80 <taskAcc+0x24c>)
 8002a1e:	009b      	lsls	r3, r3, #2
 8002a20:	4413      	add	r3, r2
 8002a22:	edc3 7a00 	vstr	s15, [r3]
 8002a26:	f9b7 306e 	ldrsh.w	r3, [r7, #110]	; 0x6e
 8002a2a:	ee07 3a90 	vmov	s15, r3
 8002a2e:	eeb8 7ae7 	vcvt.f32.s32	s14, s15
 8002a32:	4b51      	ldr	r3, [pc, #324]	; (8002b78 <taskAcc+0x244>)
 8002a34:	681b      	ldr	r3, [r3, #0]
 8002a36:	3301      	adds	r3, #1
 8002a38:	eddf 6a50 	vldr	s13, [pc, #320]	; 8002b7c <taskAcc+0x248>
 8002a3c:	eec7 7a26 	vdiv.f32	s15, s14, s13
 8002a40:	4a4f      	ldr	r2, [pc, #316]	; (8002b80 <taskAcc+0x24c>)
 8002a42:	009b      	lsls	r3, r3, #2
 8002a44:	4413      	add	r3, r2
 8002a46:	edc3 7a00 	vstr	s15, [r3]
 8002a4a:	f9b7 3070 	ldrsh.w	r3, [r7, #112]	; 0x70
 8002a4e:	ee07 3a90 	vmov	s15, r3
 8002a52:	eeb8 7ae7 	vcvt.f32.s32	s14, s15
 8002a56:	4b48      	ldr	r3, [pc, #288]	; (8002b78 <taskAcc+0x244>)
 8002a58:	681b      	ldr	r3, [r3, #0]
 8002a5a:	3302      	adds	r3, #2
 8002a5c:	eddf 6a47 	vldr	s13, [pc, #284]	; 8002b7c <taskAcc+0x248>
 8002a60:	eec7 7a26 	vdiv.f32	s15, s14, s13
 8002a64:	4a46      	ldr	r2, [pc, #280]	; (8002b80 <taskAcc+0x24c>)
 8002a66:	009b      	lsls	r3, r3, #2
 8002a68:	4413      	add	r3, r2
 8002a6a:	edc3 7a00 	vstr	s15, [r3]
 8002a6e:	4b42      	ldr	r3, [pc, #264]	; (8002b78 <taskAcc+0x244>)
 8002a70:	681b      	ldr	r3, [r3, #0]
 8002a72:	3303      	adds	r3, #3
 8002a74:	4a40      	ldr	r2, [pc, #256]	; (8002b78 <taskAcc+0x244>)
 8002a76:	6013      	str	r3, [r2, #0]
 8002a78:	4b3f      	ldr	r3, [pc, #252]	; (8002b78 <taskAcc+0x244>)
 8002a7a:	681b      	ldr	r3, [r3, #0]
 8002a7c:	2b4e      	cmp	r3, #78	; 0x4e
 8002a7e:	d16c      	bne.n	8002b5a <taskAcc+0x226>
 8002a80:	4b3d      	ldr	r3, [pc, #244]	; (8002b78 <taskAcc+0x244>)
 8002a82:	2200      	movs	r2, #0
 8002a84:	601a      	str	r2, [r3, #0]
 8002a86:	f107 0308 	add.w	r3, r7, #8
 8002a8a:	493e      	ldr	r1, [pc, #248]	; (8002b84 <taskAcc+0x250>)
 8002a8c:	4618      	mov	r0, r3
 8002a8e:	f00b fb39 	bl	800e104 <siprintf>
 8002a92:	f107 0308 	add.w	r3, r7, #8
 8002a96:	4618      	mov	r0, r3
 8002a98:	f7fd fba4 	bl	80001e4 <strlen>
 8002a9c:	4603      	mov	r3, r0
 8002a9e:	b29a      	uxth	r2, r3
 8002aa0:	f107 0108 	add.w	r1, r7, #8
 8002aa4:	f64f 73ff 	movw	r3, #65535	; 0xffff
 8002aa8:	4832      	ldr	r0, [pc, #200]	; (8002b74 <taskAcc+0x240>)
 8002aaa:	f006 fd2d 	bl	8009508 <HAL_UART_Transmit>
 8002aae:	4936      	ldr	r1, [pc, #216]	; (8002b88 <taskAcc+0x254>)
 8002ab0:	4833      	ldr	r0, [pc, #204]	; (8002b80 <taskAcc+0x24c>)
 8002ab2:	f7ff fe9d 	bl	80027f0 <AI_Run>
 8002ab6:	2300      	movs	r3, #0
 8002ab8:	f8c7 3084 	str.w	r3, [r7, #132]	; 0x84
 8002abc:	e022      	b.n	8002b04 <taskAcc+0x1d0>
 8002abe:	4a32      	ldr	r2, [pc, #200]	; (8002b88 <taskAcc+0x254>)
 8002ac0:	f8d7 3084 	ldr.w	r3, [r7, #132]	; 0x84
 8002ac4:	009b      	lsls	r3, r3, #2
 8002ac6:	4413      	add	r3, r2
 8002ac8:	681b      	ldr	r3, [r3, #0]
 8002aca:	4618      	mov	r0, r3
 8002acc:	f7fd fd4c 	bl	8000568 <__aeabi_f2d>
 8002ad0:	4602      	mov	r2, r0
 8002ad2:	460b      	mov	r3, r1
 8002ad4:	f107 0008 	add.w	r0, r7, #8
 8002ad8:	492c      	ldr	r1, [pc, #176]	; (8002b8c <taskAcc+0x258>)
 8002ada:	f00b fb13 	bl	800e104 <siprintf>
 8002ade:	f107 0308 	add.w	r3, r7, #8
 8002ae2:	4618      	mov	r0, r3
 8002ae4:	f7fd fb7e 	bl	80001e4 <strlen>
 8002ae8:	4603      	mov	r3, r0
 8002aea:	b29a      	uxth	r2, r3
 8002aec:	f107 0108 	add.w	r1, r7, #8
 8002af0:	f64f 73ff 	movw	r3, #65535	; 0xffff
 8002af4:	481f      	ldr	r0, [pc, #124]	; (8002b74 <taskAcc+0x240>)
 8002af6:	f006 fd07 	bl	8009508 <HAL_UART_Transmit>
 8002afa:	f8d7 3084 	ldr.w	r3, [r7, #132]	; 0x84
 8002afe:	3301      	adds	r3, #1
 8002b00:	f8c7 3084 	str.w	r3, [r7, #132]	; 0x84
 8002b04:	f8d7 3084 	ldr.w	r3, [r7, #132]	; 0x84
 8002b08:	2b02      	cmp	r3, #2
 8002b0a:	d9d8      	bls.n	8002abe <taskAcc+0x18a>
 8002b0c:	2103      	movs	r1, #3
 8002b0e:	481e      	ldr	r0, [pc, #120]	; (8002b88 <taskAcc+0x254>)
 8002b10:	f7ff feb8 	bl	8002884 <argmax>
 8002b14:	f8c7 0080 	str.w	r0, [r7, #128]	; 0x80
 8002b18:	f8d7 2080 	ldr.w	r2, [r7, #128]	; 0x80
 8002b1c:	491c      	ldr	r1, [pc, #112]	; (8002b90 <taskAcc+0x25c>)
 8002b1e:	f8d7 3080 	ldr.w	r3, [r7, #128]	; 0x80
 8002b22:	f851 3023 	ldr.w	r3, [r1, r3, lsl #2]
 8002b26:	f107 0008 	add.w	r0, r7, #8
 8002b2a:	491a      	ldr	r1, [pc, #104]	; (8002b94 <taskAcc+0x260>)
 8002b2c:	f00b faea 	bl	800e104 <siprintf>
 8002b30:	4a17      	ldr	r2, [pc, #92]	; (8002b90 <taskAcc+0x25c>)
 8002b32:	f8d7 3080 	ldr.w	r3, [r7, #128]	; 0x80
 8002b36:	f852 3023 	ldr.w	r3, [r2, r3, lsl #2]
 8002b3a:	4a17      	ldr	r2, [pc, #92]	; (8002b98 <taskAcc+0x264>)
 8002b3c:	6013      	str	r3, [r2, #0]
 8002b3e:	f107 0308 	add.w	r3, r7, #8
 8002b42:	4618      	mov	r0, r3
 8002b44:	f7fd fb4e 	bl	80001e4 <strlen>
 8002b48:	4603      	mov	r3, r0
 8002b4a:	b29a      	uxth	r2, r3
 8002b4c:	f107 0108 	add.w	r1, r7, #8
 8002b50:	f64f 73ff 	movw	r3, #65535	; 0xffff
 8002b54:	4807      	ldr	r0, [pc, #28]	; (8002b74 <taskAcc+0x240>)
 8002b56:	f006 fcd7 	bl	8009508 <HAL_UART_Transmit>
 8002b5a:	bf00      	nop
 8002b5c:	378c      	adds	r7, #140	; 0x8c
 8002b5e:	46bd      	mov	sp, r7
 8002b60:	e8bd 83f0 	ldmia.w	sp!, {r4, r5, r6, r7, r8, r9, pc}
 8002b64:	51eb851f 	mvnpl	r8, pc, lsl r5
 8002b68:	20000b78 	andcs	r0, r0, r8, ror fp
 8002b6c:	20000b7c 	andcs	r0, r0, ip, ror fp
 8002b70:	08010720 	stmdaeq	r1, {r5, r8, r9, sl}
 8002b74:	200033a0 	andcs	r3, r0, r0, lsr #7
 8002b78:	20003d00 	andcs	r3, r0, r0, lsl #26
 8002b7c:	457a0000 	ldrbmi	r0, [sl, #-0]!
 8002b80:	20003508 	andcs	r3, r0, r8, lsl #10
 8002b84:	08010778 	stmdaeq	r1, {r3, r4, r5, r6, r8, r9, sl}
 8002b88:	20003640 	andcs	r3, r0, r0, asr #12
 8002b8c:	0801078c 	stmdaeq	r1, {r2, r3, r7, r8, r9, sl}
 8002b90:	2000000c 	andcs	r0, r0, ip
 8002b94:	08010794 	stmdaeq	r1, {r2, r4, r7, r8, r9, sl}
 8002b98:	20000034 	andcs	r0, r0, r4, lsr r0

08002b9c <taskTemp>:
 8002b9c:	b5b0      	push	{r4, r5, r7, lr}
 8002b9e:	b09c      	sub	sp, #112	; 0x70
 8002ba0:	af02      	add	r7, sp, #8
 8002ba2:	f001 fbd3 	bl	800434c <BSP_TSENSOR_ReadTemp>
 8002ba6:	eef0 7a40 	vmov.f32	s15, s0
 8002baa:	4b13      	ldr	r3, [pc, #76]	; (8002bf8 <taskTemp+0x5c>)
 8002bac:	edc3 7a00 	vstr	s15, [r3]
 8002bb0:	4b12      	ldr	r3, [pc, #72]	; (8002bfc <taskTemp+0x60>)
 8002bb2:	681c      	ldr	r4, [r3, #0]
 8002bb4:	4b12      	ldr	r3, [pc, #72]	; (8002c00 <taskTemp+0x64>)
 8002bb6:	681d      	ldr	r5, [r3, #0]
 8002bb8:	4b0f      	ldr	r3, [pc, #60]	; (8002bf8 <taskTemp+0x5c>)
 8002bba:	681b      	ldr	r3, [r3, #0]
 8002bbc:	4618      	mov	r0, r3
 8002bbe:	f7fd fcd3 	bl	8000568 <__aeabi_f2d>
 8002bc2:	4602      	mov	r2, r0
 8002bc4:	460b      	mov	r3, r1
 8002bc6:	1d38      	adds	r0, r7, #4
 8002bc8:	e9cd 2300 	strd	r2, r3, [sp]
 8002bcc:	462b      	mov	r3, r5
 8002bce:	4622      	mov	r2, r4
 8002bd0:	490c      	ldr	r1, [pc, #48]	; (8002c04 <taskTemp+0x68>)
 8002bd2:	f00b fa97 	bl	800e104 <siprintf>
 8002bd6:	1d3b      	adds	r3, r7, #4
 8002bd8:	4618      	mov	r0, r3
 8002bda:	f7fd fb03 	bl	80001e4 <strlen>
 8002bde:	4603      	mov	r3, r0
 8002be0:	b29a      	uxth	r2, r3
 8002be2:	1d39      	adds	r1, r7, #4
 8002be4:	f64f 73ff 	movw	r3, #65535	; 0xffff
 8002be8:	4807      	ldr	r0, [pc, #28]	; (8002c08 <taskTemp+0x6c>)
 8002bea:	f006 fc8d 	bl	8009508 <HAL_UART_Transmit>
 8002bee:	bf00      	nop
 8002bf0:	3768      	adds	r7, #104	; 0x68
 8002bf2:	46bd      	mov	sp, r7
 8002bf4:	bdb0      	pop	{r4, r5, r7, pc}
 8002bf6:	bf00      	nop
 8002bf8:	20003e58 	andcs	r3, r0, r8, asr lr
 8002bfc:	20000b78 	andcs	r0, r0, r8, ror fp
 8002c00:	20000b7c 	andcs	r0, r0, ip, ror fp
 8002c04:	080107a0 	stmdaeq	r1, {r5, r7, r8, r9, sl}
 8002c08:	200033a0 	andcs	r3, r0, r0, lsr #7

08002c0c <taskHumi>:
 8002c0c:	b5b0      	push	{r4, r5, r7, lr}
 8002c0e:	b09c      	sub	sp, #112	; 0x70
 8002c10:	af02      	add	r7, sp, #8
 8002c12:	f001 fb25 	bl	8004260 <BSP_HSENSOR_ReadHumidity>
 8002c16:	eef0 7a40 	vmov.f32	s15, s0
 8002c1a:	4b13      	ldr	r3, [pc, #76]	; (8002c68 <taskHumi+0x5c>)
 8002c1c:	edc3 7a00 	vstr	s15, [r3]
 8002c20:	4b12      	ldr	r3, [pc, #72]	; (8002c6c <taskHumi+0x60>)
 8002c22:	681c      	ldr	r4, [r3, #0]
 8002c24:	4b12      	ldr	r3, [pc, #72]	; (8002c70 <taskHumi+0x64>)
 8002c26:	681d      	ldr	r5, [r3, #0]
 8002c28:	4b0f      	ldr	r3, [pc, #60]	; (8002c68 <taskHumi+0x5c>)
 8002c2a:	681b      	ldr	r3, [r3, #0]
 8002c2c:	4618      	mov	r0, r3
 8002c2e:	f7fd fc9b 	bl	8000568 <__aeabi_f2d>
 8002c32:	4602      	mov	r2, r0
 8002c34:	460b      	mov	r3, r1
 8002c36:	1d38      	adds	r0, r7, #4
 8002c38:	e9cd 2300 	strd	r2, r3, [sp]
 8002c3c:	462b      	mov	r3, r5
 8002c3e:	4622      	mov	r2, r4
 8002c40:	490c      	ldr	r1, [pc, #48]	; (8002c74 <taskHumi+0x68>)
 8002c42:	f00b fa5f 	bl	800e104 <siprintf>
 8002c46:	1d3b      	adds	r3, r7, #4
 8002c48:	4618      	mov	r0, r3
 8002c4a:	f7fd facb 	bl	80001e4 <strlen>
 8002c4e:	4603      	mov	r3, r0
 8002c50:	b29a      	uxth	r2, r3
 8002c52:	1d39      	adds	r1, r7, #4
 8002c54:	f64f 73ff 	movw	r3, #65535	; 0xffff
 8002c58:	4807      	ldr	r0, [pc, #28]	; (8002c78 <taskHumi+0x6c>)
 8002c5a:	f006 fc55 	bl	8009508 <HAL_UART_Transmit>
 8002c5e:	bf00      	nop
 8002c60:	3768      	adds	r7, #104	; 0x68
 8002c62:	46bd      	mov	sp, r7
 8002c64:	bdb0      	pop	{r4, r5, r7, pc}
 8002c66:	bf00      	nop
 8002c68:	20003e5c 	andcs	r3, r0, ip, asr lr
 8002c6c:	20000b78 	andcs	r0, r0, r8, ror fp
 8002c70:	20000b7c 	andcs	r0, r0, ip, ror fp
 8002c74:	08010840 	stmdaeq	r1, {r6, fp}
 8002c78:	200033a0 	andcs	r3, r0, r0, lsr #7

08002c7c <taskSendMessage>:
 8002c7c:	b580      	push	{r7, lr}
 8002c7e:	b086      	sub	sp, #24
 8002c80:	af00      	add	r7, sp, #0
 8002c82:	4b1c      	ldr	r3, [pc, #112]	; (8002cf4 <taskSendMessage+0x78>)
 8002c84:	681b      	ldr	r3, [r3, #0]
 8002c86:	4619      	mov	r1, r3
 8002c88:	481b      	ldr	r0, [pc, #108]	; (8002cf8 <taskSendMessage+0x7c>)
 8002c8a:	f000 ffa5 	bl	8003bd8 <WIFI_SendStr>
 8002c8e:	f107 030c 	add.w	r3, r7, #12
 8002c92:	220b      	movs	r2, #11
 8002c94:	2100      	movs	r1, #0
 8002c96:	4618      	mov	r0, r3
 8002c98:	f00a fc9e 	bl	800d5d8 <memset>
 8002c9c:	463b      	mov	r3, r7
 8002c9e:	220b      	movs	r2, #11
 8002ca0:	2100      	movs	r1, #0
 8002ca2:	4618      	mov	r0, r3
 8002ca4:	f00a fc98 	bl	800d5d8 <memset>
 8002ca8:	4b14      	ldr	r3, [pc, #80]	; (8002cfc <taskSendMessage+0x80>)
 8002caa:	681b      	ldr	r3, [r3, #0]
 8002cac:	4618      	mov	r0, r3
 8002cae:	f7fd fc5b 	bl	8000568 <__aeabi_f2d>
 8002cb2:	4602      	mov	r2, r0
 8002cb4:	460b      	mov	r3, r1
 8002cb6:	f107 000c 	add.w	r0, r7, #12
 8002cba:	4911      	ldr	r1, [pc, #68]	; (8002d00 <taskSendMessage+0x84>)
 8002cbc:	f00b fa22 	bl	800e104 <siprintf>
 8002cc0:	4b10      	ldr	r3, [pc, #64]	; (8002d04 <taskSendMessage+0x88>)
 8002cc2:	681b      	ldr	r3, [r3, #0]
 8002cc4:	4618      	mov	r0, r3
 8002cc6:	f7fd fc4f 	bl	8000568 <__aeabi_f2d>
 8002cca:	4602      	mov	r2, r0
 8002ccc:	460b      	mov	r3, r1
 8002cce:	4638      	mov	r0, r7
 8002cd0:	490b      	ldr	r1, [pc, #44]	; (8002d00 <taskSendMessage+0x84>)
 8002cd2:	f00b fa17 	bl	800e104 <siprintf>
 8002cd6:	f107 030c 	add.w	r3, r7, #12
 8002cda:	4619      	mov	r1, r3
 8002cdc:	4806      	ldr	r0, [pc, #24]	; (8002cf8 <taskSendMessage+0x7c>)
 8002cde:	f000 ff7b 	bl	8003bd8 <WIFI_SendStr>
 8002ce2:	463b      	mov	r3, r7
 8002ce4:	4619      	mov	r1, r3
 8002ce6:	4804      	ldr	r0, [pc, #16]	; (8002cf8 <taskSendMessage+0x7c>)
 8002ce8:	f000 ff76 	bl	8003bd8 <WIFI_SendStr>
 8002cec:	bf00      	nop
 8002cee:	3718      	adds	r7, #24
 8002cf0:	46bd      	mov	sp, r7
 8002cf2:	bd80      	pop	{r7, pc}
 8002cf4:	20000034 	andcs	r0, r0, r4, lsr r0
 8002cf8:	20003d04 	andcs	r3, r0, r4, lsl #26
 8002cfc:	20003e58 	andcs	r3, r0, r8, asr lr
 8002d00:	08010908 	stmdaeq	r1, {r3, r8, fp}
 8002d04:	20003e5c 	andcs	r3, r0, ip, asr lr

08002d08 <taskShowTime>:
 8002d08:	b5b0      	push	{r4, r5, r7, lr}
 8002d0a:	b0a4      	sub	sp, #144	; 0x90
 8002d0c:	af04      	add	r7, sp, #16
 8002d0e:	1d3b      	adds	r3, r7, #4
 8002d10:	2200      	movs	r2, #0
 8002d12:	4619      	mov	r1, r3
 8002d14:	4824      	ldr	r0, [pc, #144]	; (8002da8 <taskShowTime+0xa0>)
 8002d16:	f005 f804 	bl	8007d22 <HAL_RTC_GetTime>
 8002d1a:	f107 0318 	add.w	r3, r7, #24
 8002d1e:	2200      	movs	r2, #0
 8002d20:	4619      	mov	r1, r3
 8002d22:	4821      	ldr	r0, [pc, #132]	; (8002da8 <taskShowTime+0xa0>)
 8002d24:	f005 f8e0 	bl	8007ee8 <HAL_RTC_GetDate>
 8002d28:	4b20      	ldr	r3, [pc, #128]	; (8002dac <taskShowTime+0xa4>)
 8002d2a:	681a      	ldr	r2, [r3, #0]
 8002d2c:	4b20      	ldr	r3, [pc, #128]	; (8002db0 <taskShowTime+0xa8>)
 8002d2e:	6819      	ldr	r1, [r3, #0]
 8002d30:	7efb      	ldrb	r3, [r7, #27]
 8002d32:	f503 63fa 	add.w	r3, r3, #2000	; 0x7d0
 8002d36:	7e78      	ldrb	r0, [r7, #25]
 8002d38:	4604      	mov	r4, r0
 8002d3a:	7eb8      	ldrb	r0, [r7, #26]
 8002d3c:	4605      	mov	r5, r0
 8002d3e:	f107 001c 	add.w	r0, r7, #28
 8002d42:	9502      	str	r5, [sp, #8]
 8002d44:	9401      	str	r4, [sp, #4]
 8002d46:	9300      	str	r3, [sp, #0]
 8002d48:	460b      	mov	r3, r1
 8002d4a:	491a      	ldr	r1, [pc, #104]	; (8002db4 <taskShowTime+0xac>)
 8002d4c:	f00b f9da 	bl	800e104 <siprintf>
 8002d50:	f107 031c 	add.w	r3, r7, #28
 8002d54:	4618      	mov	r0, r3
 8002d56:	f7fd fa45 	bl	80001e4 <strlen>
 8002d5a:	4603      	mov	r3, r0
 8002d5c:	b29a      	uxth	r2, r3
 8002d5e:	f107 011c 	add.w	r1, r7, #28
 8002d62:	f64f 73ff 	movw	r3, #65535	; 0xffff
 8002d66:	4814      	ldr	r0, [pc, #80]	; (8002db8 <taskShowTime+0xb0>)
 8002d68:	f006 fbce 	bl	8009508 <HAL_UART_Transmit>
 8002d6c:	793b      	ldrb	r3, [r7, #4]
 8002d6e:	461a      	mov	r2, r3
 8002d70:	797b      	ldrb	r3, [r7, #5]
 8002d72:	4619      	mov	r1, r3
 8002d74:	79bb      	ldrb	r3, [r7, #6]
 8002d76:	f107 001c 	add.w	r0, r7, #28
 8002d7a:	9300      	str	r3, [sp, #0]
 8002d7c:	460b      	mov	r3, r1
 8002d7e:	490f      	ldr	r1, [pc, #60]	; (8002dbc <taskShowTime+0xb4>)
 8002d80:	f00b f9c0 	bl	800e104 <siprintf>
 8002d84:	f107 031c 	add.w	r3, r7, #28
 8002d88:	4618      	mov	r0, r3
 8002d8a:	f7fd fa2b 	bl	80001e4 <strlen>
 8002d8e:	4603      	mov	r3, r0
 8002d90:	b29a      	uxth	r2, r3
 8002d92:	f107 011c 	add.w	r1, r7, #28
 8002d96:	f64f 73ff 	movw	r3, #65535	; 0xffff
 8002d9a:	4807      	ldr	r0, [pc, #28]	; (8002db8 <taskShowTime+0xb0>)
 8002d9c:	f006 fbb4 	bl	8009508 <HAL_UART_Transmit>
 8002da0:	bf00      	nop
 8002da2:	3780      	adds	r7, #128	; 0x80
 8002da4:	46bd      	mov	sp, r7
 8002da6:	bdb0      	pop	{r4, r5, r7, pc}
 8002da8:	200034a0 	andcs	r3, r0, r0, lsr #9
 8002dac:	20000b78 	andcs	r0, r0, r8, ror fp
 8002db0:	20000b7c 	andcs	r0, r0, ip, ror fp
 8002db4:	08010910 	stmdaeq	r1, {r4, r8, fp}
 8002db8:	200033a0 	andcs	r3, r0, r0, lsr #7
 8002dbc:	08010954 	stmdaeq	r1, {r2, r4, r6, r8, fp}

08002dc0 <SystemClock_Config>:
 8002dc0:	b580      	push	{r7, lr}
 8002dc2:	b0b8      	sub	sp, #224	; 0xe0
 8002dc4:	af00      	add	r7, sp, #0
 8002dc6:	f107 039c 	add.w	r3, r7, #156	; 0x9c
 8002dca:	2244      	movs	r2, #68	; 0x44
 8002dcc:	2100      	movs	r1, #0
 8002dce:	4618      	mov	r0, r3
 8002dd0:	f00a fc02 	bl	800d5d8 <memset>
 8002dd4:	f107 0388 	add.w	r3, r7, #136	; 0x88
 8002dd8:	2200      	movs	r2, #0
 8002dda:	601a      	str	r2, [r3, #0]
 8002ddc:	605a      	str	r2, [r3, #4]
 8002dde:	609a      	str	r2, [r3, #8]
 8002de0:	60da      	str	r2, [r3, #12]
 8002de2:	611a      	str	r2, [r3, #16]
 8002de4:	463b      	mov	r3, r7
 8002de6:	2288      	movs	r2, #136	; 0x88
 8002de8:	2100      	movs	r1, #0
 8002dea:	4618      	mov	r0, r3
 8002dec:	f00a fbf4 	bl	800d5d8 <memset>
 8002df0:	f003 fb86 	bl	8006500 <HAL_PWR_EnableBkUpAccess>
 8002df4:	4b45      	ldr	r3, [pc, #276]	; (8002f0c <SystemClock_Config+0x14c>)
 8002df6:	f8d3 3090 	ldr.w	r3, [r3, #144]	; 0x90
 8002dfa:	4a44      	ldr	r2, [pc, #272]	; (8002f0c <SystemClock_Config+0x14c>)
 8002dfc:	f023 0318 	bic.w	r3, r3, #24
 8002e00:	f8c2 3090 	str.w	r3, [r2, #144]	; 0x90
 8002e04:	231c      	movs	r3, #28
 8002e06:	f8c7 309c 	str.w	r3, [r7, #156]	; 0x9c
 8002e0a:	2301      	movs	r3, #1
 8002e0c:	f8c7 30a4 	str.w	r3, [r7, #164]	; 0xa4
 8002e10:	2301      	movs	r3, #1
 8002e12:	f8c7 30b0 	str.w	r3, [r7, #176]	; 0xb0
 8002e16:	2301      	movs	r3, #1
 8002e18:	f8c7 30b4 	str.w	r3, [r7, #180]	; 0xb4
 8002e1c:	2300      	movs	r3, #0
 8002e1e:	f8c7 30b8 	str.w	r3, [r7, #184]	; 0xb8
 8002e22:	2360      	movs	r3, #96	; 0x60
 8002e24:	f8c7 30bc 	str.w	r3, [r7, #188]	; 0xbc
 8002e28:	2302      	movs	r3, #2
 8002e2a:	f8c7 30c4 	str.w	r3, [r7, #196]	; 0xc4
 8002e2e:	2301      	movs	r3, #1
 8002e30:	f8c7 30c8 	str.w	r3, [r7, #200]	; 0xc8
 8002e34:	2301      	movs	r3, #1
 8002e36:	f8c7 30cc 	str.w	r3, [r7, #204]	; 0xcc
 8002e3a:	2350      	movs	r3, #80	; 0x50
 8002e3c:	f8c7 30d0 	str.w	r3, [r7, #208]	; 0xd0
 8002e40:	2307      	movs	r3, #7
 8002e42:	f8c7 30d4 	str.w	r3, [r7, #212]	; 0xd4
 8002e46:	2302      	movs	r3, #2
 8002e48:	f8c7 30d8 	str.w	r3, [r7, #216]	; 0xd8
 8002e4c:	2304      	movs	r3, #4
 8002e4e:	f8c7 30dc 	str.w	r3, [r7, #220]	; 0xdc
 8002e52:	f107 039c 	add.w	r3, r7, #156	; 0x9c
 8002e56:	4618      	mov	r0, r3
 8002e58:	f003 fbc6 	bl	80065e8 <HAL_RCC_OscConfig>
 8002e5c:	4603      	mov	r3, r0
 8002e5e:	2b00      	cmp	r3, #0
 8002e60:	d001      	beq.n	8002e66 <SystemClock_Config+0xa6>
 8002e62:	f7ff f901 	bl	8002068 <Error_Handler>
 8002e66:	230f      	movs	r3, #15
 8002e68:	f8c7 3088 	str.w	r3, [r7, #136]	; 0x88
 8002e6c:	2303      	movs	r3, #3
 8002e6e:	f8c7 308c 	str.w	r3, [r7, #140]	; 0x8c
 8002e72:	2300      	movs	r3, #0
 8002e74:	f8c7 3090 	str.w	r3, [r7, #144]	; 0x90
 8002e78:	2300      	movs	r3, #0
 8002e7a:	f8c7 3094 	str.w	r3, [r7, #148]	; 0x94
 8002e7e:	2300      	movs	r3, #0
 8002e80:	f8c7 3098 	str.w	r3, [r7, #152]	; 0x98
 8002e84:	f107 0388 	add.w	r3, r7, #136	; 0x88
 8002e88:	2104      	movs	r1, #4
 8002e8a:	4618      	mov	r0, r3
 8002e8c:	f003 ff5c 	bl	8006d48 <HAL_RCC_ClockConfig>
 8002e90:	4603      	mov	r3, r0
 8002e92:	2b00      	cmp	r3, #0
 8002e94:	d001      	beq.n	8002e9a <SystemClock_Config+0xda>
 8002e96:	f7ff f8e7 	bl	8002068 <Error_Handler>
 8002e9a:	4b1d      	ldr	r3, [pc, #116]	; (8002f10 <SystemClock_Config+0x150>)
 8002e9c:	603b      	str	r3, [r7, #0]
 8002e9e:	2300      	movs	r3, #0
 8002ea0:	63bb      	str	r3, [r7, #56]	; 0x38
 8002ea2:	2300      	movs	r3, #0
 8002ea4:	643b      	str	r3, [r7, #64]	; 0x40
 8002ea6:	2300      	movs	r3, #0
 8002ea8:	657b      	str	r3, [r7, #84]	; 0x54
 8002eaa:	2300      	movs	r3, #0
 8002eac:	f8c7 3080 	str.w	r3, [r7, #128]	; 0x80
 8002eb0:	f44f 7300 	mov.w	r3, #512	; 0x200
 8002eb4:	f8c7 3084 	str.w	r3, [r7, #132]	; 0x84
 8002eb8:	f04f 6380 	mov.w	r3, #67108864	; 0x4000000
 8002ebc:	66fb      	str	r3, [r7, #108]	; 0x6c
 8002ebe:	2301      	movs	r3, #1
 8002ec0:	607b      	str	r3, [r7, #4]
 8002ec2:	2301      	movs	r3, #1
 8002ec4:	60bb      	str	r3, [r7, #8]
 8002ec6:	2318      	movs	r3, #24
 8002ec8:	60fb      	str	r3, [r7, #12]
 8002eca:	2307      	movs	r3, #7
 8002ecc:	613b      	str	r3, [r7, #16]
 8002ece:	2302      	movs	r3, #2
 8002ed0:	617b      	str	r3, [r7, #20]
 8002ed2:	2302      	movs	r3, #2
 8002ed4:	61bb      	str	r3, [r7, #24]
 8002ed6:	f44f 1380 	mov.w	r3, #1048576	; 0x100000
 8002eda:	61fb      	str	r3, [r7, #28]
 8002edc:	463b      	mov	r3, r7
 8002ede:	4618      	mov	r0, r3
 8002ee0:	f004 f938 	bl	8007154 <HAL_RCCEx_PeriphCLKConfig>
 8002ee4:	4603      	mov	r3, r0
 8002ee6:	2b00      	cmp	r3, #0
 8002ee8:	d001      	beq.n	8002eee <SystemClock_Config+0x12e>
 8002eea:	f7ff f8bd 	bl	8002068 <Error_Handler>
 8002eee:	f44f 7000 	mov.w	r0, #512	; 0x200
 8002ef2:	f003 fb23 	bl	800653c <HAL_PWREx_ControlVoltageScaling>
 8002ef6:	4603      	mov	r3, r0
 8002ef8:	2b00      	cmp	r3, #0
 8002efa:	d001      	beq.n	8002f00 <SystemClock_Config+0x140>
 8002efc:	f7ff f8b4 	bl	8002068 <Error_Handler>
 8002f00:	f004 fc12 	bl	8007728 <HAL_RCCEx_EnableMSIPLLMode>
 8002f04:	bf00      	nop
 8002f06:	37e0      	adds	r7, #224	; 0xe0
 8002f08:	46bd      	mov	sp, r7
 8002f0a:	bd80      	pop	{r7, pc}
 8002f0c:	40021000 	andmi	r1, r2, r0
 8002f10:	00032085 	andeq	r2, r3, r5, lsl #1

08002f14 <main>:
 8002f14:	b580      	push	{r7, lr}
 8002f16:	b086      	sub	sp, #24
 8002f18:	af02      	add	r7, sp, #8
 8002f1a:	f002 f8c6 	bl	80050aa <HAL_Init>
 8002f1e:	f7ff ff4f 	bl	8002dc0 <SystemClock_Config>
 8002f22:	f7ff fa33 	bl	800238c <hal_Init>
 8002f26:	2028      	movs	r0, #40	; 0x28
 8002f28:	f002 fa7b 	bl	8005422 <HAL_NVIC_DisableIRQ>
 8002f2c:	f001 f8e0 	bl	80040f0 <BSP_ACCELERO_Init>
 8002f30:	f001 f934 	bl	800419c <BSP_GYRO_Init>
 8002f34:	f001 f9a2 	bl	800427c <BSP_MAGNETO_Init>
 8002f38:	f001 f9ec 	bl	8004314 <BSP_TSENSOR_Init>
 8002f3c:	f001 f970 	bl	8004220 <BSP_HSENSOR_Init>
 8002f40:	f001 f9c8 	bl	80042d4 <BSP_PSENSOR_Init>
 8002f44:	f000 f89d 	bl	8003082 <sensor_config>
 8002f48:	f7ff fccc 	bl	80028e4 <WIFI_Init_main>
 8002f4c:	482a      	ldr	r0, [pc, #168]	; (8002ff8 <main+0xe4>)
 8002f4e:	f000 fccd 	bl	80038ec <WIFI_JoinNetwork>
 8002f52:	4a2a      	ldr	r2, [pc, #168]	; (8002ffc <main+0xe8>)
 8002f54:	492a      	ldr	r1, [pc, #168]	; (8003000 <main+0xec>)
 8002f56:	4828      	ldr	r0, [pc, #160]	; (8002ff8 <main+0xe4>)
 8002f58:	f000 fdce 	bl	8003af8 <WIFI_ConnectServer>
 8002f5c:	4b29      	ldr	r3, [pc, #164]	; (8003004 <main+0xf0>)
 8002f5e:	60fb      	str	r3, [r7, #12]
 8002f60:	4b29      	ldr	r3, [pc, #164]	; (8003008 <main+0xf4>)
 8002f62:	60bb      	str	r3, [r7, #8]
 8002f64:	4b29      	ldr	r3, [pc, #164]	; (800300c <main+0xf8>)
 8002f66:	607b      	str	r3, [r7, #4]
 8002f68:	68f9      	ldr	r1, [r7, #12]
 8002f6a:	4823      	ldr	r0, [pc, #140]	; (8002ff8 <main+0xe4>)
 8002f6c:	f000 fe34 	bl	8003bd8 <WIFI_SendStr>
 8002f70:	6879      	ldr	r1, [r7, #4]
 8002f72:	4821      	ldr	r0, [pc, #132]	; (8002ff8 <main+0xe4>)
 8002f74:	f000 fe30 	bl	8003bd8 <WIFI_SendStr>
 8002f78:	68b9      	ldr	r1, [r7, #8]
 8002f7a:	481f      	ldr	r0, [pc, #124]	; (8002ff8 <main+0xe4>)
 8002f7c:	f000 fe2c 	bl	8003bd8 <WIFI_SendStr>
 8002f80:	230a      	movs	r3, #10
 8002f82:	9301      	str	r3, [sp, #4]
 8002f84:	2300      	movs	r3, #0
 8002f86:	9300      	str	r3, [sp, #0]
 8002f88:	2300      	movs	r3, #0
 8002f8a:	2200      	movs	r2, #0
 8002f8c:	4920      	ldr	r1, [pc, #128]	; (8003010 <main+0xfc>)
 8002f8e:	4821      	ldr	r0, [pc, #132]	; (8003014 <main+0x100>)
 8002f90:	f7fd ffc6 	bl	8000f20 <registerTask>
 8002f94:	2350      	movs	r3, #80	; 0x50
 8002f96:	9301      	str	r3, [sp, #4]
 8002f98:	2301      	movs	r3, #1
 8002f9a:	9300      	str	r3, [sp, #0]
 8002f9c:	2300      	movs	r3, #0
 8002f9e:	2201      	movs	r2, #1
 8002fa0:	491d      	ldr	r1, [pc, #116]	; (8003018 <main+0x104>)
 8002fa2:	481e      	ldr	r0, [pc, #120]	; (800301c <main+0x108>)
 8002fa4:	f7fd ffbc 	bl	8000f20 <registerTask>
 8002fa8:	f44f 737a 	mov.w	r3, #1000	; 0x3e8
 8002fac:	9301      	str	r3, [sp, #4]
 8002fae:	2303      	movs	r3, #3
 8002fb0:	9300      	str	r3, [sp, #0]
 8002fb2:	2300      	movs	r3, #0
 8002fb4:	2203      	movs	r2, #3
 8002fb6:	491a      	ldr	r1, [pc, #104]	; (8003020 <main+0x10c>)
 8002fb8:	481a      	ldr	r0, [pc, #104]	; (8003024 <main+0x110>)
 8002fba:	f7fd ffb1 	bl	8000f20 <registerTask>
 8002fbe:	2350      	movs	r3, #80	; 0x50
 8002fc0:	9301      	str	r3, [sp, #4]
 8002fc2:	2302      	movs	r3, #2
 8002fc4:	9300      	str	r3, [sp, #0]
 8002fc6:	2300      	movs	r3, #0
 8002fc8:	2202      	movs	r2, #2
 8002fca:	4917      	ldr	r1, [pc, #92]	; (8003028 <main+0x114>)
 8002fcc:	4817      	ldr	r0, [pc, #92]	; (800302c <main+0x118>)
 8002fce:	f7fd ffa7 	bl	8000f20 <registerTask>
 8002fd2:	f640 33b8 	movw	r3, #3000	; 0xbb8
 8002fd6:	9301      	str	r3, [sp, #4]
 8002fd8:	2304      	movs	r3, #4
 8002fda:	9300      	str	r3, [sp, #0]
 8002fdc:	2300      	movs	r3, #0
 8002fde:	2204      	movs	r2, #4
 8002fe0:	4913      	ldr	r1, [pc, #76]	; (8003030 <main+0x11c>)
 8002fe2:	4814      	ldr	r0, [pc, #80]	; (8003034 <main+0x120>)
 8002fe4:	f7fd ff9c 	bl	8000f20 <registerTask>
 8002fe8:	2028      	movs	r0, #40	; 0x28
 8002fea:	f002 fa0c 	bl	8005406 <HAL_NVIC_EnableIRQ>
 8002fee:	f7ff fba5 	bl	800273c <AI_Init>
 8002ff2:	f7fe f915 	bl	8001220 <task_scheduler>
 8002ff6:	e7fe      	b.n	8002ff6 <main+0xe2>
 8002ff8:	20003d04 	andcs	r3, r0, r4, lsl #26
 8002ffc:	08010968 	stmdaeq	r1, {r3, r5, r6, r8, fp}
 8003000:	08010970 	stmdaeq	r1, {r4, r5, r6, r8, fp}
 8003004:	08010980 	stmdaeq	r1, {r7, r8, fp}
 8003008:	08010998 	stmdaeq	r1, {r3, r4, r7, r8, fp}
 800300c:	080109a4 	stmdaeq	r1, {r2, r5, r7, r8, fp}
 8003010:	080109b4 	stmdaeq	r1, {r2, r4, r5, r7, r8, fp}
 8003014:	08002935 	stmdaeq	r0, {r0, r2, r4, r5, r8, fp, sp}
 8003018:	080109c8 	stmdaeq	r1, {r3, r6, r7, r8, fp}
 800301c:	08002b9d 	stmdaeq	r0, {r0, r2, r3, r4, r7, r8, r9, fp, sp}
 8003020:	080109dc 	stmdaeq	r1, {r2, r3, r4, r6, r7, r8, fp}
 8003024:	08002c7d 	stmdaeq	r0, {r0, r2, r3, r4, r5, r6, sl, fp, sp}
 8003028:	080109ec 	stmdaeq	r1, {r2, r3, r5, r6, r7, r8, fp}
 800302c:	08002c0d 	stmdaeq	r0, {r0, r2, r3, sl, fp, sp}
 8003030:	08010a00 	stmdaeq	r1, {r9, fp}
 8003034:	08002d09 	stmdaeq	r0, {r0, r3, r8, sl, fp, sp}

08003038 <lsm6dsl_relative_tilt_intr_en>:
 8003038:	b580      	push	{r7, lr}
 800303a:	b082      	sub	sp, #8
 800303c:	af00      	add	r7, sp, #0
 800303e:	2119      	movs	r1, #25
 8003040:	20d4      	movs	r0, #212	; 0xd4
 8003042:	f001 f819 	bl	8004078 <SENSOR_IO_Read>
 8003046:	4603      	mov	r3, r0
 8003048:	71fb      	strb	r3, [r7, #7]
 800304a:	79fb      	ldrb	r3, [r7, #7]
 800304c:	f043 030c 	orr.w	r3, r3, #12
 8003050:	b2db      	uxtb	r3, r3
 8003052:	461a      	mov	r2, r3
 8003054:	2119      	movs	r1, #25
 8003056:	20d4      	movs	r0, #212	; 0xd4
 8003058:	f000 fff4 	bl	8004044 <SENSOR_IO_Write>
 800305c:	215e      	movs	r1, #94	; 0x5e
 800305e:	20d4      	movs	r0, #212	; 0xd4
 8003060:	f001 f80a 	bl	8004078 <SENSOR_IO_Read>
 8003064:	4603      	mov	r3, r0
 8003066:	71fb      	strb	r3, [r7, #7]
 8003068:	79fb      	ldrb	r3, [r7, #7]
 800306a:	f043 0302 	orr.w	r3, r3, #2
 800306e:	b2db      	uxtb	r3, r3
 8003070:	461a      	mov	r2, r3
 8003072:	215e      	movs	r1, #94	; 0x5e
 8003074:	20d4      	movs	r0, #212	; 0xd4
 8003076:	f000 ffe5 	bl	8004044 <SENSOR_IO_Write>
 800307a:	bf00      	nop
 800307c:	3708      	adds	r7, #8
 800307e:	46bd      	mov	sp, r7
 8003080:	bd80      	pop	{r7, pc}

08003082 <sensor_config>:
 8003082:	b580      	push	{r7, lr}
 8003084:	af00      	add	r7, sp, #0
 8003086:	f7ff ffd7 	bl	8003038 <lsm6dsl_relative_tilt_intr_en>
 800308a:	bf00      	nop
 800308c:	bd80      	pop	{r7, pc}
	...

08003090 <HAL_MspInit>:
 8003090:	b480      	push	{r7}
 8003092:	b083      	sub	sp, #12
 8003094:	af00      	add	r7, sp, #0
 8003096:	4b0f      	ldr	r3, [pc, #60]	; (80030d4 <HAL_MspInit+0x44>)
 8003098:	6e1b      	ldr	r3, [r3, #96]	; 0x60
 800309a:	4a0e      	ldr	r2, [pc, #56]	; (80030d4 <HAL_MspInit+0x44>)
 800309c:	f043 0301 	orr.w	r3, r3, #1
 80030a0:	6613      	str	r3, [r2, #96]	; 0x60
 80030a2:	4b0c      	ldr	r3, [pc, #48]	; (80030d4 <HAL_MspInit+0x44>)
 80030a4:	6e1b      	ldr	r3, [r3, #96]	; 0x60
 80030a6:	f003 0301 	and.w	r3, r3, #1
 80030aa:	607b      	str	r3, [r7, #4]
 80030ac:	687b      	ldr	r3, [r7, #4]
 80030ae:	4b09      	ldr	r3, [pc, #36]	; (80030d4 <HAL_MspInit+0x44>)
 80030b0:	6d9b      	ldr	r3, [r3, #88]	; 0x58
 80030b2:	4a08      	ldr	r2, [pc, #32]	; (80030d4 <HAL_MspInit+0x44>)
 80030b4:	f043 5380 	orr.w	r3, r3, #268435456	; 0x10000000
 80030b8:	6593      	str	r3, [r2, #88]	; 0x58
 80030ba:	4b06      	ldr	r3, [pc, #24]	; (80030d4 <HAL_MspInit+0x44>)
 80030bc:	6d9b      	ldr	r3, [r3, #88]	; 0x58
 80030be:	f003 5380 	and.w	r3, r3, #268435456	; 0x10000000
 80030c2:	603b      	str	r3, [r7, #0]
 80030c4:	683b      	ldr	r3, [r7, #0]
 80030c6:	bf00      	nop
 80030c8:	370c      	adds	r7, #12
 80030ca:	46bd      	mov	sp, r7
 80030cc:	f85d 7b04 	ldr.w	r7, [sp], #4
 80030d0:	4770      	bx	lr
 80030d2:	bf00      	nop
 80030d4:	40021000 	andmi	r1, r2, r0

080030d8 <HAL_I2C_MspInit>:
 80030d8:	b580      	push	{r7, lr}
 80030da:	b08a      	sub	sp, #40	; 0x28
 80030dc:	af00      	add	r7, sp, #0
 80030de:	6078      	str	r0, [r7, #4]
 80030e0:	f107 0314 	add.w	r3, r7, #20
 80030e4:	2200      	movs	r2, #0
 80030e6:	601a      	str	r2, [r3, #0]
 80030e8:	605a      	str	r2, [r3, #4]
 80030ea:	609a      	str	r2, [r3, #8]
 80030ec:	60da      	str	r2, [r3, #12]
 80030ee:	611a      	str	r2, [r3, #16]
 80030f0:	687b      	ldr	r3, [r7, #4]
 80030f2:	681b      	ldr	r3, [r3, #0]
 80030f4:	4a17      	ldr	r2, [pc, #92]	; (8003154 <HAL_I2C_MspInit+0x7c>)
 80030f6:	4293      	cmp	r3, r2
 80030f8:	d128      	bne.n	800314c <HAL_I2C_MspInit+0x74>
 80030fa:	4b17      	ldr	r3, [pc, #92]	; (8003158 <HAL_I2C_MspInit+0x80>)
 80030fc:	6cdb      	ldr	r3, [r3, #76]	; 0x4c
 80030fe:	4a16      	ldr	r2, [pc, #88]	; (8003158 <HAL_I2C_MspInit+0x80>)
 8003100:	f043 0302 	orr.w	r3, r3, #2
 8003104:	64d3      	str	r3, [r2, #76]	; 0x4c
 8003106:	4b14      	ldr	r3, [pc, #80]	; (8003158 <HAL_I2C_MspInit+0x80>)
 8003108:	6cdb      	ldr	r3, [r3, #76]	; 0x4c
 800310a:	f003 0302 	and.w	r3, r3, #2
 800310e:	613b      	str	r3, [r7, #16]
 8003110:	693b      	ldr	r3, [r7, #16]
 8003112:	f44f 6340 	mov.w	r3, #3072	; 0xc00
 8003116:	617b      	str	r3, [r7, #20]
 8003118:	2312      	movs	r3, #18
 800311a:	61bb      	str	r3, [r7, #24]
 800311c:	2301      	movs	r3, #1
 800311e:	61fb      	str	r3, [r7, #28]
 8003120:	2303      	movs	r3, #3
 8003122:	623b      	str	r3, [r7, #32]
 8003124:	2304      	movs	r3, #4
 8003126:	627b      	str	r3, [r7, #36]	; 0x24
 8003128:	f107 0314 	add.w	r3, r7, #20
 800312c:	4619      	mov	r1, r3
 800312e:	480b      	ldr	r0, [pc, #44]	; (800315c <HAL_I2C_MspInit+0x84>)
 8003130:	f002 f992 	bl	8005458 <HAL_GPIO_Init>
 8003134:	4b08      	ldr	r3, [pc, #32]	; (8003158 <HAL_I2C_MspInit+0x80>)
 8003136:	6d9b      	ldr	r3, [r3, #88]	; 0x58
 8003138:	4a07      	ldr	r2, [pc, #28]	; (8003158 <HAL_I2C_MspInit+0x80>)
 800313a:	f443 0380 	orr.w	r3, r3, #4194304	; 0x400000
 800313e:	6593      	str	r3, [r2, #88]	; 0x58
 8003140:	4b05      	ldr	r3, [pc, #20]	; (8003158 <HAL_I2C_MspInit+0x80>)
 8003142:	6d9b      	ldr	r3, [r3, #88]	; 0x58
 8003144:	f403 0380 	and.w	r3, r3, #4194304	; 0x400000
 8003148:	60fb      	str	r3, [r7, #12]
 800314a:	68fb      	ldr	r3, [r7, #12]
 800314c:	bf00      	nop
 800314e:	3728      	adds	r7, #40	; 0x28
 8003150:	46bd      	mov	sp, r7
 8003152:	bd80      	pop	{r7, pc}
 8003154:	40005800 	andmi	r5, r0, r0, lsl #16
 8003158:	40021000 	andmi	r1, r2, r0
 800315c:	48000400 	stmdami	r0, {sl}

08003160 <HAL_I2C_MspDeInit>:
 8003160:	b580      	push	{r7, lr}
 8003162:	b082      	sub	sp, #8
 8003164:	af00      	add	r7, sp, #0
 8003166:	6078      	str	r0, [r7, #4]
 8003168:	687b      	ldr	r3, [r7, #4]
 800316a:	681b      	ldr	r3, [r3, #0]
 800316c:	4a08      	ldr	r2, [pc, #32]	; (8003190 <HAL_I2C_MspDeInit+0x30>)
 800316e:	4293      	cmp	r3, r2
 8003170:	d10a      	bne.n	8003188 <HAL_I2C_MspDeInit+0x28>
 8003172:	4b08      	ldr	r3, [pc, #32]	; (8003194 <HAL_I2C_MspDeInit+0x34>)
 8003174:	6d9b      	ldr	r3, [r3, #88]	; 0x58
 8003176:	4a07      	ldr	r2, [pc, #28]	; (8003194 <HAL_I2C_MspDeInit+0x34>)
 8003178:	f423 0380 	bic.w	r3, r3, #4194304	; 0x400000
 800317c:	6593      	str	r3, [r2, #88]	; 0x58
 800317e:	f44f 6140 	mov.w	r1, #3072	; 0xc00
 8003182:	4805      	ldr	r0, [pc, #20]	; (8003198 <HAL_I2C_MspDeInit+0x38>)
 8003184:	f002 fb12 	bl	80057ac <HAL_GPIO_DeInit>
 8003188:	bf00      	nop
 800318a:	3708      	adds	r7, #8
 800318c:	46bd      	mov	sp, r7
 800318e:	bd80      	pop	{r7, pc}
 8003190:	40005800 	andmi	r5, r0, r0, lsl #16
 8003194:	40021000 	andmi	r1, r2, r0
 8003198:	48000400 	stmdami	r0, {sl}

0800319c <HAL_RTC_MspInit>:
 800319c:	b480      	push	{r7}
 800319e:	b083      	sub	sp, #12
 80031a0:	af00      	add	r7, sp, #0
 80031a2:	6078      	str	r0, [r7, #4]
 80031a4:	687b      	ldr	r3, [r7, #4]
 80031a6:	681b      	ldr	r3, [r3, #0]
 80031a8:	4a08      	ldr	r2, [pc, #32]	; (80031cc <HAL_RTC_MspInit+0x30>)
 80031aa:	4293      	cmp	r3, r2
 80031ac:	d107      	bne.n	80031be <HAL_RTC_MspInit+0x22>
 80031ae:	4b08      	ldr	r3, [pc, #32]	; (80031d0 <HAL_RTC_MspInit+0x34>)
 80031b0:	f8d3 3090 	ldr.w	r3, [r3, #144]	; 0x90
 80031b4:	4a06      	ldr	r2, [pc, #24]	; (80031d0 <HAL_RTC_MspInit+0x34>)
 80031b6:	f443 4300 	orr.w	r3, r3, #32768	; 0x8000
 80031ba:	f8c2 3090 	str.w	r3, [r2, #144]	; 0x90
 80031be:	bf00      	nop
 80031c0:	370c      	adds	r7, #12
 80031c2:	46bd      	mov	sp, r7
 80031c4:	f85d 7b04 	ldr.w	r7, [sp], #4
 80031c8:	4770      	bx	lr
 80031ca:	bf00      	nop
 80031cc:	40002800 	andmi	r2, r0, r0, lsl #16
 80031d0:	40021000 	andmi	r1, r2, r0

080031d4 <HAL_SPI_MspInit>:
 80031d4:	b580      	push	{r7, lr}
 80031d6:	b08a      	sub	sp, #40	; 0x28
 80031d8:	af00      	add	r7, sp, #0
 80031da:	6078      	str	r0, [r7, #4]
 80031dc:	f107 0314 	add.w	r3, r7, #20
 80031e0:	2200      	movs	r2, #0
 80031e2:	601a      	str	r2, [r3, #0]
 80031e4:	605a      	str	r2, [r3, #4]
 80031e6:	609a      	str	r2, [r3, #8]
 80031e8:	60da      	str	r2, [r3, #12]
 80031ea:	611a      	str	r2, [r3, #16]
 80031ec:	687b      	ldr	r3, [r7, #4]
 80031ee:	681b      	ldr	r3, [r3, #0]
 80031f0:	4a17      	ldr	r2, [pc, #92]	; (8003250 <HAL_SPI_MspInit+0x7c>)
 80031f2:	4293      	cmp	r3, r2
 80031f4:	d128      	bne.n	8003248 <HAL_SPI_MspInit+0x74>
 80031f6:	4b17      	ldr	r3, [pc, #92]	; (8003254 <HAL_SPI_MspInit+0x80>)
 80031f8:	6d9b      	ldr	r3, [r3, #88]	; 0x58
 80031fa:	4a16      	ldr	r2, [pc, #88]	; (8003254 <HAL_SPI_MspInit+0x80>)
 80031fc:	f443 4300 	orr.w	r3, r3, #32768	; 0x8000
 8003200:	6593      	str	r3, [r2, #88]	; 0x58
 8003202:	4b14      	ldr	r3, [pc, #80]	; (8003254 <HAL_SPI_MspInit+0x80>)
 8003204:	6d9b      	ldr	r3, [r3, #88]	; 0x58
 8003206:	f403 4300 	and.w	r3, r3, #32768	; 0x8000
 800320a:	613b      	str	r3, [r7, #16]
 800320c:	693b      	ldr	r3, [r7, #16]
 800320e:	4b11      	ldr	r3, [pc, #68]	; (8003254 <HAL_SPI_MspInit+0x80>)
 8003210:	6cdb      	ldr	r3, [r3, #76]	; 0x4c
 8003212:	4a10      	ldr	r2, [pc, #64]	; (8003254 <HAL_SPI_MspInit+0x80>)
 8003214:	f043 0304 	orr.w	r3, r3, #4
 8003218:	64d3      	str	r3, [r2, #76]	; 0x4c
 800321a:	4b0e      	ldr	r3, [pc, #56]	; (8003254 <HAL_SPI_MspInit+0x80>)
 800321c:	6cdb      	ldr	r3, [r3, #76]	; 0x4c
 800321e:	f003 0304 	and.w	r3, r3, #4
 8003222:	60fb      	str	r3, [r7, #12]
 8003224:	68fb      	ldr	r3, [r7, #12]
 8003226:	f44f 53e0 	mov.w	r3, #7168	; 0x1c00
 800322a:	617b      	str	r3, [r7, #20]
 800322c:	2302      	movs	r3, #2
 800322e:	61bb      	str	r3, [r7, #24]
 8003230:	2300      	movs	r3, #0
 8003232:	61fb      	str	r3, [r7, #28]
 8003234:	2303      	movs	r3, #3
 8003236:	623b      	str	r3, [r7, #32]
 8003238:	2306      	movs	r3, #6
 800323a:	627b      	str	r3, [r7, #36]	; 0x24
 800323c:	f107 0314 	add.w	r3, r7, #20
 8003240:	4619      	mov	r1, r3
 8003242:	4805      	ldr	r0, [pc, #20]	; (8003258 <HAL_SPI_MspInit+0x84>)
 8003244:	f002 f908 	bl	8005458 <HAL_GPIO_Init>
 8003248:	bf00      	nop
 800324a:	3728      	adds	r7, #40	; 0x28
 800324c:	46bd      	mov	sp, r7
 800324e:	bd80      	pop	{r7, pc}
 8003250:	40003c00 	andmi	r3, r0, r0, lsl #24
 8003254:	40021000 	andmi	r1, r2, r0
 8003258:	48000800 	stmdami	r0, {fp}

0800325c <HAL_UART_MspInit>:
 800325c:	b580      	push	{r7, lr}
 800325e:	b08c      	sub	sp, #48	; 0x30
 8003260:	af00      	add	r7, sp, #0
 8003262:	6078      	str	r0, [r7, #4]
 8003264:	f107 031c 	add.w	r3, r7, #28
 8003268:	2200      	movs	r2, #0
 800326a:	601a      	str	r2, [r3, #0]
 800326c:	605a      	str	r2, [r3, #4]
 800326e:	609a      	str	r2, [r3, #8]
 8003270:	60da      	str	r2, [r3, #12]
 8003272:	611a      	str	r2, [r3, #16]
 8003274:	687b      	ldr	r3, [r7, #4]
 8003276:	681b      	ldr	r3, [r3, #0]
 8003278:	4a2e      	ldr	r2, [pc, #184]	; (8003334 <HAL_UART_MspInit+0xd8>)
 800327a:	4293      	cmp	r3, r2
 800327c:	d128      	bne.n	80032d0 <HAL_UART_MspInit+0x74>
 800327e:	4b2e      	ldr	r3, [pc, #184]	; (8003338 <HAL_UART_MspInit+0xdc>)
 8003280:	6e1b      	ldr	r3, [r3, #96]	; 0x60
 8003282:	4a2d      	ldr	r2, [pc, #180]	; (8003338 <HAL_UART_MspInit+0xdc>)
 8003284:	f443 4380 	orr.w	r3, r3, #16384	; 0x4000
 8003288:	6613      	str	r3, [r2, #96]	; 0x60
 800328a:	4b2b      	ldr	r3, [pc, #172]	; (8003338 <HAL_UART_MspInit+0xdc>)
 800328c:	6e1b      	ldr	r3, [r3, #96]	; 0x60
 800328e:	f403 4380 	and.w	r3, r3, #16384	; 0x4000
 8003292:	61bb      	str	r3, [r7, #24]
 8003294:	69bb      	ldr	r3, [r7, #24]
 8003296:	4b28      	ldr	r3, [pc, #160]	; (8003338 <HAL_UART_MspInit+0xdc>)
 8003298:	6cdb      	ldr	r3, [r3, #76]	; 0x4c
 800329a:	4a27      	ldr	r2, [pc, #156]	; (8003338 <HAL_UART_MspInit+0xdc>)
 800329c:	f043 0302 	orr.w	r3, r3, #2
 80032a0:	64d3      	str	r3, [r2, #76]	; 0x4c
 80032a2:	4b25      	ldr	r3, [pc, #148]	; (8003338 <HAL_UART_MspInit+0xdc>)
 80032a4:	6cdb      	ldr	r3, [r3, #76]	; 0x4c
 80032a6:	f003 0302 	and.w	r3, r3, #2
 80032aa:	617b      	str	r3, [r7, #20]
 80032ac:	697b      	ldr	r3, [r7, #20]
 80032ae:	23c0      	movs	r3, #192	; 0xc0
 80032b0:	61fb      	str	r3, [r7, #28]
 80032b2:	2302      	movs	r3, #2
 80032b4:	623b      	str	r3, [r7, #32]
 80032b6:	2300      	movs	r3, #0
 80032b8:	627b      	str	r3, [r7, #36]	; 0x24
 80032ba:	2303      	movs	r3, #3
 80032bc:	62bb      	str	r3, [r7, #40]	; 0x28
 80032be:	2307      	movs	r3, #7
 80032c0:	62fb      	str	r3, [r7, #44]	; 0x2c
 80032c2:	f107 031c 	add.w	r3, r7, #28
 80032c6:	4619      	mov	r1, r3
 80032c8:	481c      	ldr	r0, [pc, #112]	; (800333c <HAL_UART_MspInit+0xe0>)
 80032ca:	f002 f8c5 	bl	8005458 <HAL_GPIO_Init>
 80032ce:	e02d      	b.n	800332c <HAL_UART_MspInit+0xd0>
 80032d0:	687b      	ldr	r3, [r7, #4]
 80032d2:	681b      	ldr	r3, [r3, #0]
 80032d4:	4a1a      	ldr	r2, [pc, #104]	; (8003340 <HAL_UART_MspInit+0xe4>)
 80032d6:	4293      	cmp	r3, r2
 80032d8:	d128      	bne.n	800332c <HAL_UART_MspInit+0xd0>
 80032da:	4b17      	ldr	r3, [pc, #92]	; (8003338 <HAL_UART_MspInit+0xdc>)
 80032dc:	6d9b      	ldr	r3, [r3, #88]	; 0x58
 80032de:	4a16      	ldr	r2, [pc, #88]	; (8003338 <HAL_UART_MspInit+0xdc>)
 80032e0:	f443 2380 	orr.w	r3, r3, #262144	; 0x40000
 80032e4:	6593      	str	r3, [r2, #88]	; 0x58
 80032e6:	4b14      	ldr	r3, [pc, #80]	; (8003338 <HAL_UART_MspInit+0xdc>)
 80032e8:	6d9b      	ldr	r3, [r3, #88]	; 0x58
 80032ea:	f403 2380 	and.w	r3, r3, #262144	; 0x40000
 80032ee:	613b      	str	r3, [r7, #16]
 80032f0:	693b      	ldr	r3, [r7, #16]
 80032f2:	4b11      	ldr	r3, [pc, #68]	; (8003338 <HAL_UART_MspInit+0xdc>)
 80032f4:	6cdb      	ldr	r3, [r3, #76]	; 0x4c
 80032f6:	4a10      	ldr	r2, [pc, #64]	; (8003338 <HAL_UART_MspInit+0xdc>)
 80032f8:	f043 0308 	orr.w	r3, r3, #8
 80032fc:	64d3      	str	r3, [r2, #76]	; 0x4c
 80032fe:	4b0e      	ldr	r3, [pc, #56]	; (8003338 <HAL_UART_MspInit+0xdc>)
 8003300:	6cdb      	ldr	r3, [r3, #76]	; 0x4c
 8003302:	f003 0308 	and.w	r3, r3, #8
 8003306:	60fb      	str	r3, [r7, #12]
 8003308:	68fb      	ldr	r3, [r7, #12]
 800330a:	f44f 7340 	mov.w	r3, #768	; 0x300
 800330e:	61fb      	str	r3, [r7, #28]
 8003310:	2302      	movs	r3, #2
 8003312:	623b      	str	r3, [r7, #32]
 8003314:	2300      	movs	r3, #0
 8003316:	627b      	str	r3, [r7, #36]	; 0x24
 8003318:	2303      	movs	r3, #3
 800331a:	62bb      	str	r3, [r7, #40]	; 0x28
 800331c:	2307      	movs	r3, #7
 800331e:	62fb      	str	r3, [r7, #44]	; 0x2c
 8003320:	f107 031c 	add.w	r3, r7, #28
 8003324:	4619      	mov	r1, r3
 8003326:	4807      	ldr	r0, [pc, #28]	; (8003344 <HAL_UART_MspInit+0xe8>)
 8003328:	f002 f896 	bl	8005458 <HAL_GPIO_Init>
 800332c:	bf00      	nop
 800332e:	3730      	adds	r7, #48	; 0x30
 8003330:	46bd      	mov	sp, r7
 8003332:	bd80      	pop	{r7, pc}
 8003334:	40013800 	andmi	r3, r1, r0, lsl #16
 8003338:	40021000 	andmi	r1, r2, r0
 800333c:	48000400 	stmdami	r0, {sl}
 8003340:	40004800 	andmi	r4, r0, r0, lsl #16
 8003344:	48000c00 	stmdami	r0, {sl, fp}

08003348 <NMI_Handler>:
 8003348:	b480      	push	{r7}
 800334a:	af00      	add	r7, sp, #0
 800334c:	bf00      	nop
 800334e:	46bd      	mov	sp, r7
 8003350:	f85d 7b04 	ldr.w	r7, [sp], #4
 8003354:	4770      	bx	lr

08003356 <HardFault_Handler>:
 8003356:	b480      	push	{r7}
 8003358:	af00      	add	r7, sp, #0
 800335a:	e7fe      	b.n	800335a <HardFault_Handler+0x4>

0800335c <MemManage_Handler>:
 800335c:	b480      	push	{r7}
 800335e:	af00      	add	r7, sp, #0
 8003360:	e7fe      	b.n	8003360 <MemManage_Handler+0x4>

08003362 <BusFault_Handler>:
 8003362:	b480      	push	{r7}
 8003364:	af00      	add	r7, sp, #0
 8003366:	e7fe      	b.n	8003366 <BusFault_Handler+0x4>

08003368 <UsageFault_Handler>:
 8003368:	b480      	push	{r7}
 800336a:	af00      	add	r7, sp, #0
 800336c:	e7fe      	b.n	800336c <UsageFault_Handler+0x4>

0800336e <SVC_Handler>:
 800336e:	b480      	push	{r7}
 8003370:	af00      	add	r7, sp, #0
 8003372:	bf00      	nop
 8003374:	46bd      	mov	sp, r7
 8003376:	f85d 7b04 	ldr.w	r7, [sp], #4
 800337a:	4770      	bx	lr

0800337c <DebugMon_Handler>:
 800337c:	b480      	push	{r7}
 800337e:	af00      	add	r7, sp, #0
 8003380:	bf00      	nop
 8003382:	46bd      	mov	sp, r7
 8003384:	f85d 7b04 	ldr.w	r7, [sp], #4
 8003388:	4770      	bx	lr

0800338a <PendSV_Handler>:
 800338a:	b480      	push	{r7}
 800338c:	af00      	add	r7, sp, #0
 800338e:	bf00      	nop
 8003390:	46bd      	mov	sp, r7
 8003392:	f85d 7b04 	ldr.w	r7, [sp], #4
 8003396:	4770      	bx	lr

08003398 <SysTick_Handler>:
 8003398:	b580      	push	{r7, lr}
 800339a:	af00      	add	r7, sp, #0
 800339c:	f001 fed8 	bl	8005150 <HAL_IncTick>
 80033a0:	bf00      	nop
 80033a2:	bd80      	pop	{r7, pc}

080033a4 <EXTI9_5_IRQHandler>:
 80033a4:	b580      	push	{r7, lr}
 80033a6:	af00      	add	r7, sp, #0
 80033a8:	2020      	movs	r0, #32
 80033aa:	f002 fb3d 	bl	8005a28 <HAL_GPIO_EXTI_IRQHandler>
 80033ae:	2040      	movs	r0, #64	; 0x40
 80033b0:	f002 fb3a 	bl	8005a28 <HAL_GPIO_EXTI_IRQHandler>
 80033b4:	2080      	movs	r0, #128	; 0x80
 80033b6:	f002 fb37 	bl	8005a28 <HAL_GPIO_EXTI_IRQHandler>
 80033ba:	f44f 7080 	mov.w	r0, #256	; 0x100
 80033be:	f002 fb33 	bl	8005a28 <HAL_GPIO_EXTI_IRQHandler>
 80033c2:	bf00      	nop
 80033c4:	bd80      	pop	{r7, pc}

080033c6 <EXTI15_10_IRQHandler>:
 80033c6:	b580      	push	{r7, lr}
 80033c8:	af00      	add	r7, sp, #0
 80033ca:	f44f 6080 	mov.w	r0, #1024	; 0x400
 80033ce:	f002 fb2b 	bl	8005a28 <HAL_GPIO_EXTI_IRQHandler>
 80033d2:	f44f 6000 	mov.w	r0, #2048	; 0x800
 80033d6:	f002 fb27 	bl	8005a28 <HAL_GPIO_EXTI_IRQHandler>
 80033da:	f44f 5000 	mov.w	r0, #8192	; 0x2000
 80033de:	f002 fb23 	bl	8005a28 <HAL_GPIO_EXTI_IRQHandler>
 80033e2:	f44f 4080 	mov.w	r0, #16384	; 0x4000
 80033e6:	f002 fb1f 	bl	8005a28 <HAL_GPIO_EXTI_IRQHandler>
 80033ea:	f44f 4000 	mov.w	r0, #32768	; 0x8000
 80033ee:	f002 fb1b 	bl	8005a28 <HAL_GPIO_EXTI_IRQHandler>
 80033f2:	bf00      	nop
 80033f4:	bd80      	pop	{r7, pc}

080033f6 <EXTI1_IRQHandler>:
 80033f6:	b580      	push	{r7, lr}
 80033f8:	af00      	add	r7, sp, #0
 80033fa:	2002      	movs	r0, #2
 80033fc:	f002 fb14 	bl	8005a28 <HAL_GPIO_EXTI_IRQHandler>
 8003400:	bf00      	nop
 8003402:	bd80      	pop	{r7, pc}

08003404 <_sbrk>:
 8003404:	b580      	push	{r7, lr}
 8003406:	b084      	sub	sp, #16
 8003408:	af00      	add	r7, sp, #0
 800340a:	6078      	str	r0, [r7, #4]
 800340c:	4b11      	ldr	r3, [pc, #68]	; (8003454 <_sbrk+0x50>)
 800340e:	681b      	ldr	r3, [r3, #0]
 8003410:	2b00      	cmp	r3, #0
 8003412:	d102      	bne.n	800341a <_sbrk+0x16>
 8003414:	4b0f      	ldr	r3, [pc, #60]	; (8003454 <_sbrk+0x50>)
 8003416:	4a10      	ldr	r2, [pc, #64]	; (8003458 <_sbrk+0x54>)
 8003418:	601a      	str	r2, [r3, #0]
 800341a:	4b0e      	ldr	r3, [pc, #56]	; (8003454 <_sbrk+0x50>)
 800341c:	681b      	ldr	r3, [r3, #0]
 800341e:	60fb      	str	r3, [r7, #12]
 8003420:	4b0c      	ldr	r3, [pc, #48]	; (8003454 <_sbrk+0x50>)
 8003422:	681a      	ldr	r2, [r3, #0]
 8003424:	687b      	ldr	r3, [r7, #4]
 8003426:	4413      	add	r3, r2
 8003428:	466a      	mov	r2, sp
 800342a:	4293      	cmp	r3, r2
 800342c:	d907      	bls.n	800343e <_sbrk+0x3a>
 800342e:	f009 ff99 	bl	800d364 <__errno>
 8003432:	4603      	mov	r3, r0
 8003434:	220c      	movs	r2, #12
 8003436:	601a      	str	r2, [r3, #0]
 8003438:	f04f 33ff 	mov.w	r3, #4294967295
 800343c:	e006      	b.n	800344c <_sbrk+0x48>
 800343e:	4b05      	ldr	r3, [pc, #20]	; (8003454 <_sbrk+0x50>)
 8003440:	681a      	ldr	r2, [r3, #0]
 8003442:	687b      	ldr	r3, [r7, #4]
 8003444:	4413      	add	r3, r2
 8003446:	4a03      	ldr	r2, [pc, #12]	; (8003454 <_sbrk+0x50>)
 8003448:	6013      	str	r3, [r2, #0]
 800344a:	68fb      	ldr	r3, [r7, #12]
 800344c:	4618      	mov	r0, r3
 800344e:	3710      	adds	r7, #16
 8003450:	46bd      	mov	sp, r7
 8003452:	bd80      	pop	{r7, pc}
 8003454:	20003e60 	andcs	r3, r0, r0, ror #28
 8003458:	20004830 	andcs	r4, r0, r0, lsr r8

0800345c <SystemInit>:
 800345c:	b480      	push	{r7}
 800345e:	af00      	add	r7, sp, #0
 8003460:	4b17      	ldr	r3, [pc, #92]	; (80034c0 <SystemInit+0x64>)
 8003462:	f8d3 3088 	ldr.w	r3, [r3, #136]	; 0x88
 8003466:	4a16      	ldr	r2, [pc, #88]	; (80034c0 <SystemInit+0x64>)
 8003468:	f443 0370 	orr.w	r3, r3, #15728640	; 0xf00000
 800346c:	f8c2 3088 	str.w	r3, [r2, #136]	; 0x88
 8003470:	4b14      	ldr	r3, [pc, #80]	; (80034c4 <SystemInit+0x68>)
 8003472:	681b      	ldr	r3, [r3, #0]
 8003474:	4a13      	ldr	r2, [pc, #76]	; (80034c4 <SystemInit+0x68>)
 8003476:	f043 0301 	orr.w	r3, r3, #1
 800347a:	6013      	str	r3, [r2, #0]
 800347c:	4b11      	ldr	r3, [pc, #68]	; (80034c4 <SystemInit+0x68>)
 800347e:	2200      	movs	r2, #0
 8003480:	609a      	str	r2, [r3, #8]
 8003482:	4b10      	ldr	r3, [pc, #64]	; (80034c4 <SystemInit+0x68>)
 8003484:	681b      	ldr	r3, [r3, #0]
 8003486:	4a0f      	ldr	r2, [pc, #60]	; (80034c4 <SystemInit+0x68>)
 8003488:	f023 53a8 	bic.w	r3, r3, #352321536	; 0x15000000
 800348c:	f423 2310 	bic.w	r3, r3, #589824	; 0x90000
 8003490:	6013      	str	r3, [r2, #0]
 8003492:	4b0c      	ldr	r3, [pc, #48]	; (80034c4 <SystemInit+0x68>)
 8003494:	f44f 5280 	mov.w	r2, #4096	; 0x1000
 8003498:	60da      	str	r2, [r3, #12]
 800349a:	4b0a      	ldr	r3, [pc, #40]	; (80034c4 <SystemInit+0x68>)
 800349c:	681b      	ldr	r3, [r3, #0]
 800349e:	4a09      	ldr	r2, [pc, #36]	; (80034c4 <SystemInit+0x68>)
 80034a0:	f423 2380 	bic.w	r3, r3, #262144	; 0x40000
 80034a4:	6013      	str	r3, [r2, #0]
 80034a6:	4b07      	ldr	r3, [pc, #28]	; (80034c4 <SystemInit+0x68>)
 80034a8:	2200      	movs	r2, #0
 80034aa:	619a      	str	r2, [r3, #24]
 80034ac:	4b04      	ldr	r3, [pc, #16]	; (80034c0 <SystemInit+0x64>)
 80034ae:	f04f 6200 	mov.w	r2, #134217728	; 0x8000000
 80034b2:	609a      	str	r2, [r3, #8]
 80034b4:	bf00      	nop
 80034b6:	46bd      	mov	sp, r7
 80034b8:	f85d 7b04 	ldr.w	r7, [sp], #4
 80034bc:	4770      	bx	lr
 80034be:	bf00      	nop
 80034c0:	e000ed00 	and	lr, r0, r0, lsl #26
 80034c4:	40021000 	andmi	r1, r2, r0

080034c8 <WIFI_DEBUG>:
 80034c8:	b580      	push	{r7, lr}
 80034ca:	f6ad 4d08 	subw	sp, sp, #3080	; 0xc08
 80034ce:	af00      	add	r7, sp, #0
 80034d0:	f607 4308 	addw	r3, r7, #3080	; 0xc08
 80034d4:	f6a3 4304 	subw	r3, r3, #3076	; 0xc04
 80034d8:	6018      	str	r0, [r3, #0]
 80034da:	f607 4308 	addw	r3, r7, #3080	; 0xc08
 80034de:	f6a3 4308 	subw	r3, r3, #3080	; 0xc08
 80034e2:	6019      	str	r1, [r3, #0]
 80034e4:	f607 4308 	addw	r3, r7, #3080	; 0xc08
 80034e8:	f6a3 4304 	subw	r3, r3, #3076	; 0xc04
 80034ec:	f107 0208 	add.w	r2, r7, #8
 80034f0:	6819      	ldr	r1, [r3, #0]
 80034f2:	4610      	mov	r0, r2
 80034f4:	f00a fe06 	bl	800e104 <siprintf>
 80034f8:	f107 0308 	add.w	r3, r7, #8
 80034fc:	4618      	mov	r0, r3
 80034fe:	f7fc fe71 	bl	80001e4 <strlen>
 8003502:	4603      	mov	r3, r0
 8003504:	1c59      	adds	r1, r3, #1
 8003506:	f107 0308 	add.w	r3, r7, #8
 800350a:	220d      	movs	r2, #13
 800350c:	4618      	mov	r0, r3
 800350e:	f000 fbe9 	bl	8003ce4 <trimstr>
 8003512:	f607 4308 	addw	r3, r7, #3080	; 0xc08
 8003516:	f6a3 4308 	subw	r3, r3, #3080	; 0xc08
 800351a:	f107 0208 	add.w	r2, r7, #8
 800351e:	f507 6081 	add.w	r0, r7, #1032	; 0x408
 8003522:	681b      	ldr	r3, [r3, #0]
 8003524:	490a      	ldr	r1, [pc, #40]	; (8003550 <WIFI_DEBUG+0x88>)
 8003526:	f00a fded 	bl	800e104 <siprintf>
 800352a:	f507 6381 	add.w	r3, r7, #1032	; 0x408
 800352e:	4618      	mov	r0, r3
 8003530:	f7fc fe58 	bl	80001e4 <strlen>
 8003534:	4603      	mov	r3, r0
 8003536:	b29a      	uxth	r2, r3
 8003538:	f507 6181 	add.w	r1, r7, #1032	; 0x408
 800353c:	f64f 73ff 	movw	r3, #65535	; 0xffff
 8003540:	4804      	ldr	r0, [pc, #16]	; (8003554 <WIFI_DEBUG+0x8c>)
 8003542:	f005 ffe1 	bl	8009508 <HAL_UART_Transmit>
 8003546:	bf00      	nop
 8003548:	f607 4708 	addw	r7, r7, #3080	; 0xc08
 800354c:	46bd      	mov	sp, r7
 800354e:	bd80      	pop	{r7, pc}
 8003550:	08010a14 	stmdaeq	r1, {r2, r4, r9, fp}
 8003554:	200033a0 	andcs	r3, r0, r0, lsr #7

08003558 <WIFI_SPI_Receive>:
 8003558:	b580      	push	{r7, lr}
 800355a:	b086      	sub	sp, #24
 800355c:	af00      	add	r7, sp, #0
 800355e:	60f8      	str	r0, [r7, #12]
 8003560:	60b9      	str	r1, [r7, #8]
 8003562:	4613      	mov	r3, r2
 8003564:	80fb      	strh	r3, [r7, #6]
 8003566:	2300      	movs	r3, #0
 8003568:	82fb      	strh	r3, [r7, #22]
 800356a:	88fb      	ldrh	r3, [r7, #6]
 800356c:	461a      	mov	r2, r3
 800356e:	2100      	movs	r1, #0
 8003570:	68b8      	ldr	r0, [r7, #8]
 8003572:	f00a f831 	bl	800d5d8 <memset>
 8003576:	e016      	b.n	80035a6 <WIFI_SPI_Receive+0x4e>
 8003578:	88fb      	ldrh	r3, [r7, #6]
 800357a:	1e5a      	subs	r2, r3, #1
 800357c:	8afb      	ldrh	r3, [r7, #22]
 800357e:	429a      	cmp	r2, r3
 8003580:	dd0c      	ble.n	800359c <WIFI_SPI_Receive+0x44>
 8003582:	68fb      	ldr	r3, [r7, #12]
 8003584:	6818      	ldr	r0, [r3, #0]
 8003586:	8afb      	ldrh	r3, [r7, #22]
 8003588:	68ba      	ldr	r2, [r7, #8]
 800358a:	18d1      	adds	r1, r2, r3
 800358c:	f44f 737a 	mov.w	r3, #1000	; 0x3e8
 8003590:	2201      	movs	r2, #1
 8003592:	f004 ffe6 	bl	8008562 <HAL_SPI_Receive>
 8003596:	4603      	mov	r3, r0
 8003598:	2b00      	cmp	r3, #0
 800359a:	d001      	beq.n	80035a0 <WIFI_SPI_Receive+0x48>
 800359c:	f7fe fd64 	bl	8002068 <Error_Handler>
 80035a0:	8afb      	ldrh	r3, [r7, #22]
 80035a2:	3302      	adds	r3, #2
 80035a4:	82fb      	strh	r3, [r7, #22]
 80035a6:	2102      	movs	r1, #2
 80035a8:	4808      	ldr	r0, [pc, #32]	; (80035cc <WIFI_SPI_Receive+0x74>)
 80035aa:	f002 f9f3 	bl	8005994 <HAL_GPIO_ReadPin>
 80035ae:	4603      	mov	r3, r0
 80035b0:	2b01      	cmp	r3, #1
 80035b2:	d0e1      	beq.n	8003578 <WIFI_SPI_Receive+0x20>
 80035b4:	88fb      	ldrh	r3, [r7, #6]
 80035b6:	2215      	movs	r2, #21
 80035b8:	4619      	mov	r1, r3
 80035ba:	68b8      	ldr	r0, [r7, #8]
 80035bc:	f000 fb92 	bl	8003ce4 <trimstr>
 80035c0:	2300      	movs	r3, #0
 80035c2:	4618      	mov	r0, r3
 80035c4:	3718      	adds	r7, #24
 80035c6:	46bd      	mov	sp, r7
 80035c8:	bd80      	pop	{r7, pc}
 80035ca:	bf00      	nop
 80035cc:	48001000 	stmdami	r0, {ip}

080035d0 <WIFI_SPI_Transmit>:
 80035d0:	e92d 43f0 	stmdb	sp!, {r4, r5, r6, r7, r8, r9, lr}
 80035d4:	b087      	sub	sp, #28
 80035d6:	af00      	add	r7, sp, #0
 80035d8:	60f8      	str	r0, [r7, #12]
 80035da:	60b9      	str	r1, [r7, #8]
 80035dc:	4613      	mov	r3, r2
 80035de:	80fb      	strh	r3, [r7, #6]
 80035e0:	466b      	mov	r3, sp
 80035e2:	461e      	mov	r6, r3
 80035e4:	88fb      	ldrh	r3, [r7, #6]
 80035e6:	085b      	lsrs	r3, r3, #1
 80035e8:	b29b      	uxth	r3, r3
 80035ea:	005b      	lsls	r3, r3, #1
 80035ec:	1c59      	adds	r1, r3, #1
 80035ee:	1e4b      	subs	r3, r1, #1
 80035f0:	617b      	str	r3, [r7, #20]
 80035f2:	460a      	mov	r2, r1
 80035f4:	2300      	movs	r3, #0
 80035f6:	4690      	mov	r8, r2
 80035f8:	4699      	mov	r9, r3
 80035fa:	f04f 0200 	mov.w	r2, #0
 80035fe:	f04f 0300 	mov.w	r3, #0
 8003602:	ea4f 03c9 	mov.w	r3, r9, lsl #3
 8003606:	ea43 7358 	orr.w	r3, r3, r8, lsr #29
 800360a:	ea4f 02c8 	mov.w	r2, r8, lsl #3
 800360e:	460a      	mov	r2, r1
 8003610:	2300      	movs	r3, #0
 8003612:	4614      	mov	r4, r2
 8003614:	461d      	mov	r5, r3
 8003616:	f04f 0200 	mov.w	r2, #0
 800361a:	f04f 0300 	mov.w	r3, #0
 800361e:	00eb      	lsls	r3, r5, #3
 8003620:	ea43 7354 	orr.w	r3, r3, r4, lsr #29
 8003624:	00e2      	lsls	r2, r4, #3
 8003626:	460b      	mov	r3, r1
 8003628:	3307      	adds	r3, #7
 800362a:	08db      	lsrs	r3, r3, #3
 800362c:	00db      	lsls	r3, r3, #3
 800362e:	ebad 0d03 	sub.w	sp, sp, r3
 8003632:	466b      	mov	r3, sp
 8003634:	3300      	adds	r3, #0
 8003636:	613b      	str	r3, [r7, #16]
 8003638:	88fb      	ldrh	r3, [r7, #6]
 800363a:	68ba      	ldr	r2, [r7, #8]
 800363c:	4619      	mov	r1, r3
 800363e:	6938      	ldr	r0, [r7, #16]
 8003640:	f00a fd2c 	bl	800e09c <sniprintf>
 8003644:	88fb      	ldrh	r3, [r7, #6]
 8003646:	f003 0301 	and.w	r3, r3, #1
 800364a:	b29b      	uxth	r3, r3
 800364c:	2b00      	cmp	r3, #0
 800364e:	d103      	bne.n	8003658 <WIFI_SPI_Transmit+0x88>
 8003650:	210a      	movs	r1, #10
 8003652:	6938      	ldr	r0, [r7, #16]
 8003654:	f00a fdb9 	bl	800e1ca <strcat>
 8003658:	68fb      	ldr	r3, [r7, #12]
 800365a:	6818      	ldr	r0, [r3, #0]
 800365c:	88fb      	ldrh	r3, [r7, #6]
 800365e:	085b      	lsrs	r3, r3, #1
 8003660:	b29a      	uxth	r2, r3
 8003662:	f44f 737a 	mov.w	r3, #1000	; 0x3e8
 8003666:	6939      	ldr	r1, [r7, #16]
 8003668:	f004 fe15 	bl	8008296 <HAL_SPI_Transmit>
 800366c:	4603      	mov	r3, r0
 800366e:	2b00      	cmp	r3, #0
 8003670:	d001      	beq.n	8003676 <WIFI_SPI_Transmit+0xa6>
 8003672:	f7fe fcf9 	bl	8002068 <Error_Handler>
 8003676:	2300      	movs	r3, #0
 8003678:	46b5      	mov	sp, r6
 800367a:	4618      	mov	r0, r3
 800367c:	371c      	adds	r7, #28
 800367e:	46bd      	mov	sp, r7
 8003680:	e8bd 83f0 	ldmia.w	sp!, {r4, r5, r6, r7, r8, r9, pc}

08003684 <WIFI_Init>:
 8003684:	b580      	push	{r7, lr}
 8003686:	b086      	sub	sp, #24
 8003688:	af02      	add	r7, sp, #8
 800368a:	6078      	str	r0, [r7, #4]
 800368c:	2300      	movs	r3, #0
 800368e:	60fb      	str	r3, [r7, #12]
 8003690:	2200      	movs	r2, #0
 8003692:	f44f 7180 	mov.w	r1, #256	; 0x100
 8003696:	482f      	ldr	r0, [pc, #188]	; (8003754 <WIFI_Init+0xd0>)
 8003698:	f002 f994 	bl	80059c4 <HAL_GPIO_WritePin>
 800369c:	200a      	movs	r0, #10
 800369e:	f001 fd75 	bl	800518c <HAL_Delay>
 80036a2:	2201      	movs	r2, #1
 80036a4:	f44f 7180 	mov.w	r1, #256	; 0x100
 80036a8:	482a      	ldr	r0, [pc, #168]	; (8003754 <WIFI_Init+0xd0>)
 80036aa:	f002 f98b 	bl	80059c4 <HAL_GPIO_WritePin>
 80036ae:	f44f 70fa 	mov.w	r0, #500	; 0x1f4
 80036b2:	f001 fd6b 	bl	800518c <HAL_Delay>
 80036b6:	2200      	movs	r2, #0
 80036b8:	2101      	movs	r1, #1
 80036ba:	4826      	ldr	r0, [pc, #152]	; (8003754 <WIFI_Init+0xd0>)
 80036bc:	f002 f982 	bl	80059c4 <HAL_GPIO_WritePin>
 80036c0:	200a      	movs	r0, #10
 80036c2:	f001 fd63 	bl	800518c <HAL_Delay>
 80036c6:	bf00      	nop
 80036c8:	2102      	movs	r1, #2
 80036ca:	4822      	ldr	r0, [pc, #136]	; (8003754 <WIFI_Init+0xd0>)
 80036cc:	f002 f962 	bl	8005994 <HAL_GPIO_ReadPin>
 80036d0:	4603      	mov	r3, r0
 80036d2:	2b01      	cmp	r3, #1
 80036d4:	d1f8      	bne.n	80036c8 <WIFI_Init+0x44>
 80036d6:	f44f 6280 	mov.w	r2, #1024	; 0x400
 80036da:	491f      	ldr	r1, [pc, #124]	; (8003758 <WIFI_Init+0xd4>)
 80036dc:	6878      	ldr	r0, [r7, #4]
 80036de:	f7ff ff3b 	bl	8003558 <WIFI_SPI_Receive>
 80036e2:	4603      	mov	r3, r0
 80036e4:	2b00      	cmp	r3, #0
 80036e6:	d001      	beq.n	80036ec <WIFI_Init+0x68>
 80036e8:	f7fe fcbe 	bl	8002068 <Error_Handler>
 80036ec:	491b      	ldr	r1, [pc, #108]	; (800375c <WIFI_Init+0xd8>)
 80036ee:	481a      	ldr	r0, [pc, #104]	; (8003758 <WIFI_Init+0xd4>)
 80036f0:	f7fc fd6e 	bl	80001d0 <strcmp>
 80036f4:	4603      	mov	r3, r0
 80036f6:	2b00      	cmp	r3, #0
 80036f8:	d001      	beq.n	80036fe <WIFI_Init+0x7a>
 80036fa:	f7fe fcb5 	bl	8002068 <Error_Handler>
 80036fe:	2201      	movs	r2, #1
 8003700:	2101      	movs	r1, #1
 8003702:	4814      	ldr	r0, [pc, #80]	; (8003754 <WIFI_Init+0xd0>)
 8003704:	f002 f95e 	bl	80059c4 <HAL_GPIO_WritePin>
 8003708:	200a      	movs	r0, #10
 800370a:	f001 fd3f 	bl	800518c <HAL_Delay>
 800370e:	4914      	ldr	r1, [pc, #80]	; (8003760 <WIFI_Init+0xdc>)
 8003710:	4814      	ldr	r0, [pc, #80]	; (8003764 <WIFI_Init+0xe0>)
 8003712:	f00a fcf7 	bl	800e104 <siprintf>
 8003716:	60f8      	str	r0, [r7, #12]
 8003718:	f44f 6380 	mov.w	r3, #1024	; 0x400
 800371c:	9300      	str	r3, [sp, #0]
 800371e:	4b0e      	ldr	r3, [pc, #56]	; (8003758 <WIFI_Init+0xd4>)
 8003720:	f44f 6280 	mov.w	r2, #1024	; 0x400
 8003724:	490f      	ldr	r1, [pc, #60]	; (8003764 <WIFI_Init+0xe0>)
 8003726:	6878      	ldr	r0, [r7, #4]
 8003728:	f000 f820 	bl	800376c <WIFI_SendATCommand>
 800372c:	490e      	ldr	r1, [pc, #56]	; (8003768 <WIFI_Init+0xe4>)
 800372e:	480d      	ldr	r0, [pc, #52]	; (8003764 <WIFI_Init+0xe0>)
 8003730:	f00a fce8 	bl	800e104 <siprintf>
 8003734:	60f8      	str	r0, [r7, #12]
 8003736:	f44f 6380 	mov.w	r3, #1024	; 0x400
 800373a:	9300      	str	r3, [sp, #0]
 800373c:	4b06      	ldr	r3, [pc, #24]	; (8003758 <WIFI_Init+0xd4>)
 800373e:	f44f 6280 	mov.w	r2, #1024	; 0x400
 8003742:	4908      	ldr	r1, [pc, #32]	; (8003764 <WIFI_Init+0xe0>)
 8003744:	6878      	ldr	r0, [r7, #4]
 8003746:	f000 f811 	bl	800376c <WIFI_SendATCommand>
 800374a:	2300      	movs	r3, #0
 800374c:	4618      	mov	r0, r3
 800374e:	3710      	adds	r7, #16
 8003750:	46bd      	mov	sp, r7
 8003752:	bd80      	pop	{r7, pc}
 8003754:	48001000 	stmdami	r0, {ip}
 8003758:	20004264 	andcs	r4, r0, r4, ror #4
 800375c:	08010a1c 	stmdaeq	r1, {r2, r3, r4, r9, fp}
 8003760:	08010a24 	stmdaeq	r1, {r2, r5, r9, fp}
 8003764:	20003e64 	andcs	r3, r0, r4, ror #28
 8003768:	08010a2c 	stmdaeq	r1, {r2, r3, r5, r9, fp}

0800376c <WIFI_SendATCommand>:
 800376c:	b580      	push	{r7, lr}
 800376e:	b084      	sub	sp, #16
 8003770:	af00      	add	r7, sp, #0
 8003772:	60f8      	str	r0, [r7, #12]
 8003774:	60b9      	str	r1, [r7, #8]
 8003776:	603b      	str	r3, [r7, #0]
 8003778:	4613      	mov	r3, r2
 800377a:	80fb      	strh	r3, [r7, #6]
 800377c:	bf00      	nop
 800377e:	2102      	movs	r1, #2
 8003780:	4828      	ldr	r0, [pc, #160]	; (8003824 <WIFI_SendATCommand+0xb8>)
 8003782:	f002 f907 	bl	8005994 <HAL_GPIO_ReadPin>
 8003786:	4603      	mov	r3, r0
 8003788:	2b01      	cmp	r3, #1
 800378a:	d1f8      	bne.n	800377e <WIFI_SendATCommand+0x12>
 800378c:	2200      	movs	r2, #0
 800378e:	2101      	movs	r1, #1
 8003790:	4824      	ldr	r0, [pc, #144]	; (8003824 <WIFI_SendATCommand+0xb8>)
 8003792:	f002 f917 	bl	80059c4 <HAL_GPIO_WritePin>
 8003796:	200a      	movs	r0, #10
 8003798:	f001 fcf8 	bl	800518c <HAL_Delay>
 800379c:	88fb      	ldrh	r3, [r7, #6]
 800379e:	461a      	mov	r2, r3
 80037a0:	68b9      	ldr	r1, [r7, #8]
 80037a2:	68f8      	ldr	r0, [r7, #12]
 80037a4:	f7ff ff14 	bl	80035d0 <WIFI_SPI_Transmit>
 80037a8:	4603      	mov	r3, r0
 80037aa:	2b00      	cmp	r3, #0
 80037ac:	d001      	beq.n	80037b2 <WIFI_SendATCommand+0x46>
 80037ae:	f7fe fc5b 	bl	8002068 <Error_Handler>
 80037b2:	2201      	movs	r2, #1
 80037b4:	2101      	movs	r1, #1
 80037b6:	481b      	ldr	r0, [pc, #108]	; (8003824 <WIFI_SendATCommand+0xb8>)
 80037b8:	f002 f904 	bl	80059c4 <HAL_GPIO_WritePin>
 80037bc:	200a      	movs	r0, #10
 80037be:	f001 fce5 	bl	800518c <HAL_Delay>
 80037c2:	bf00      	nop
 80037c4:	2102      	movs	r1, #2
 80037c6:	4817      	ldr	r0, [pc, #92]	; (8003824 <WIFI_SendATCommand+0xb8>)
 80037c8:	f002 f8e4 	bl	8005994 <HAL_GPIO_ReadPin>
 80037cc:	4603      	mov	r3, r0
 80037ce:	2b01      	cmp	r3, #1
 80037d0:	d1f8      	bne.n	80037c4 <WIFI_SendATCommand+0x58>
 80037d2:	2200      	movs	r2, #0
 80037d4:	2101      	movs	r1, #1
 80037d6:	4813      	ldr	r0, [pc, #76]	; (8003824 <WIFI_SendATCommand+0xb8>)
 80037d8:	f002 f8f4 	bl	80059c4 <HAL_GPIO_WritePin>
 80037dc:	200a      	movs	r0, #10
 80037de:	f001 fcd5 	bl	800518c <HAL_Delay>
 80037e2:	8b3b      	ldrh	r3, [r7, #24]
 80037e4:	461a      	mov	r2, r3
 80037e6:	6839      	ldr	r1, [r7, #0]
 80037e8:	68f8      	ldr	r0, [r7, #12]
 80037ea:	f7ff feb5 	bl	8003558 <WIFI_SPI_Receive>
 80037ee:	4603      	mov	r3, r0
 80037f0:	2b00      	cmp	r3, #0
 80037f2:	d001      	beq.n	80037f8 <WIFI_SendATCommand+0x8c>
 80037f4:	f7fe fc38 	bl	8002068 <Error_Handler>
 80037f8:	2102      	movs	r1, #2
 80037fa:	480a      	ldr	r0, [pc, #40]	; (8003824 <WIFI_SendATCommand+0xb8>)
 80037fc:	f002 f8ca 	bl	8005994 <HAL_GPIO_ReadPin>
 8003800:	4603      	mov	r3, r0
 8003802:	2b01      	cmp	r3, #1
 8003804:	d101      	bne.n	800380a <WIFI_SendATCommand+0x9e>
 8003806:	f7fe fc2f 	bl	8002068 <Error_Handler>
 800380a:	2201      	movs	r2, #1
 800380c:	2101      	movs	r1, #1
 800380e:	4805      	ldr	r0, [pc, #20]	; (8003824 <WIFI_SendATCommand+0xb8>)
 8003810:	f002 f8d8 	bl	80059c4 <HAL_GPIO_WritePin>
 8003814:	200a      	movs	r0, #10
 8003816:	f001 fcb9 	bl	800518c <HAL_Delay>
 800381a:	2300      	movs	r3, #0
 800381c:	4618      	mov	r0, r3
 800381e:	3710      	adds	r7, #16
 8003820:	46bd      	mov	sp, r7
 8003822:	bd80      	pop	{r7, pc}
 8003824:	48001000 	stmdami	r0, {ip}

08003828 <WIFI_SendATData>:
 8003828:	b580      	push	{r7, lr}
 800382a:	b084      	sub	sp, #16
 800382c:	af00      	add	r7, sp, #0
 800382e:	60f8      	str	r0, [r7, #12]
 8003830:	60b9      	str	r1, [r7, #8]
 8003832:	603b      	str	r3, [r7, #0]
 8003834:	4613      	mov	r3, r2
 8003836:	80fb      	strh	r3, [r7, #6]
 8003838:	bf00      	nop
 800383a:	2102      	movs	r1, #2
 800383c:	482a      	ldr	r0, [pc, #168]	; (80038e8 <WIFI_SendATData+0xc0>)
 800383e:	f002 f8a9 	bl	8005994 <HAL_GPIO_ReadPin>
 8003842:	4603      	mov	r3, r0
 8003844:	2b01      	cmp	r3, #1
 8003846:	d1f8      	bne.n	800383a <WIFI_SendATData+0x12>
 8003848:	2200      	movs	r2, #0
 800384a:	2101      	movs	r1, #1
 800384c:	4826      	ldr	r0, [pc, #152]	; (80038e8 <WIFI_SendATData+0xc0>)
 800384e:	f002 f8b9 	bl	80059c4 <HAL_GPIO_WritePin>
 8003852:	200a      	movs	r0, #10
 8003854:	f001 fc9a 	bl	800518c <HAL_Delay>
 8003858:	68fb      	ldr	r3, [r7, #12]
 800385a:	6818      	ldr	r0, [r3, #0]
 800385c:	88fb      	ldrh	r3, [r7, #6]
 800385e:	085b      	lsrs	r3, r3, #1
 8003860:	b29a      	uxth	r2, r3
 8003862:	f44f 737a 	mov.w	r3, #1000	; 0x3e8
 8003866:	68b9      	ldr	r1, [r7, #8]
 8003868:	f004 fd15 	bl	8008296 <HAL_SPI_Transmit>
 800386c:	4603      	mov	r3, r0
 800386e:	2b00      	cmp	r3, #0
 8003870:	d001      	beq.n	8003876 <WIFI_SendATData+0x4e>
 8003872:	f7fe fbf9 	bl	8002068 <Error_Handler>
 8003876:	2201      	movs	r2, #1
 8003878:	2101      	movs	r1, #1
 800387a:	481b      	ldr	r0, [pc, #108]	; (80038e8 <WIFI_SendATData+0xc0>)
 800387c:	f002 f8a2 	bl	80059c4 <HAL_GPIO_WritePin>
 8003880:	200a      	movs	r0, #10
 8003882:	f001 fc83 	bl	800518c <HAL_Delay>
 8003886:	bf00      	nop
 8003888:	2102      	movs	r1, #2
 800388a:	4817      	ldr	r0, [pc, #92]	; (80038e8 <WIFI_SendATData+0xc0>)
 800388c:	f002 f882 	bl	8005994 <HAL_GPIO_ReadPin>
 8003890:	4603      	mov	r3, r0
 8003892:	2b01      	cmp	r3, #1
 8003894:	d1f8      	bne.n	8003888 <WIFI_SendATData+0x60>
 8003896:	2200      	movs	r2, #0
 8003898:	2101      	movs	r1, #1
 800389a:	4813      	ldr	r0, [pc, #76]	; (80038e8 <WIFI_SendATData+0xc0>)
 800389c:	f002 f892 	bl	80059c4 <HAL_GPIO_WritePin>
 80038a0:	200a      	movs	r0, #10
 80038a2:	f001 fc73 	bl	800518c <HAL_Delay>
 80038a6:	8b3b      	ldrh	r3, [r7, #24]
 80038a8:	461a      	mov	r2, r3
 80038aa:	6839      	ldr	r1, [r7, #0]
 80038ac:	68f8      	ldr	r0, [r7, #12]
 80038ae:	f7ff fe53 	bl	8003558 <WIFI_SPI_Receive>
 80038b2:	4603      	mov	r3, r0
 80038b4:	2b00      	cmp	r3, #0
 80038b6:	d001      	beq.n	80038bc <WIFI_SendATData+0x94>
 80038b8:	f7fe fbd6 	bl	8002068 <Error_Handler>
 80038bc:	2102      	movs	r1, #2
 80038be:	480a      	ldr	r0, [pc, #40]	; (80038e8 <WIFI_SendATData+0xc0>)
 80038c0:	f002 f868 	bl	8005994 <HAL_GPIO_ReadPin>
 80038c4:	4603      	mov	r3, r0
 80038c6:	2b01      	cmp	r3, #1
 80038c8:	d101      	bne.n	80038ce <WIFI_SendATData+0xa6>
 80038ca:	f7fe fbcd 	bl	8002068 <Error_Handler>
 80038ce:	2201      	movs	r2, #1
 80038d0:	2101      	movs	r1, #1
 80038d2:	4805      	ldr	r0, [pc, #20]	; (80038e8 <WIFI_SendATData+0xc0>)
 80038d4:	f002 f876 	bl	80059c4 <HAL_GPIO_WritePin>
 80038d8:	200a      	movs	r0, #10
 80038da:	f001 fc57 	bl	800518c <HAL_Delay>
 80038de:	2300      	movs	r3, #0
 80038e0:	4618      	mov	r0, r3
 80038e2:	3710      	adds	r7, #16
 80038e4:	46bd      	mov	sp, r7
 80038e6:	bd80      	pop	{r7, pc}
 80038e8:	48001000 	stmdami	r0, {ip}

080038ec <WIFI_JoinNetwork>:
 80038ec:	b580      	push	{r7, lr}
 80038ee:	b088      	sub	sp, #32
 80038f0:	af02      	add	r7, sp, #8
 80038f2:	6078      	str	r0, [r7, #4]
 80038f4:	2300      	movs	r3, #0
 80038f6:	617b      	str	r3, [r7, #20]
 80038f8:	687b      	ldr	r3, [r7, #4]
 80038fa:	685b      	ldr	r3, [r3, #4]
 80038fc:	461a      	mov	r2, r3
 80038fe:	4972      	ldr	r1, [pc, #456]	; (8003ac8 <WIFI_JoinNetwork+0x1dc>)
 8003900:	4872      	ldr	r0, [pc, #456]	; (8003acc <WIFI_JoinNetwork+0x1e0>)
 8003902:	f00a fbff 	bl	800e104 <siprintf>
 8003906:	6178      	str	r0, [r7, #20]
 8003908:	697b      	ldr	r3, [r7, #20]
 800390a:	b29b      	uxth	r3, r3
 800390c:	3301      	adds	r3, #1
 800390e:	b29a      	uxth	r2, r3
 8003910:	f44f 6380 	mov.w	r3, #1024	; 0x400
 8003914:	9300      	str	r3, [sp, #0]
 8003916:	4b6e      	ldr	r3, [pc, #440]	; (8003ad0 <WIFI_JoinNetwork+0x1e4>)
 8003918:	496c      	ldr	r1, [pc, #432]	; (8003acc <WIFI_JoinNetwork+0x1e0>)
 800391a:	6878      	ldr	r0, [r7, #4]
 800391c:	f7ff ff26 	bl	800376c <WIFI_SendATCommand>
 8003920:	687b      	ldr	r3, [r7, #4]
 8003922:	689b      	ldr	r3, [r3, #8]
 8003924:	461a      	mov	r2, r3
 8003926:	496b      	ldr	r1, [pc, #428]	; (8003ad4 <WIFI_JoinNetwork+0x1e8>)
 8003928:	4868      	ldr	r0, [pc, #416]	; (8003acc <WIFI_JoinNetwork+0x1e0>)
 800392a:	f00a fbeb 	bl	800e104 <siprintf>
 800392e:	6178      	str	r0, [r7, #20]
 8003930:	697b      	ldr	r3, [r7, #20]
 8003932:	b29b      	uxth	r3, r3
 8003934:	3301      	adds	r3, #1
 8003936:	b29a      	uxth	r2, r3
 8003938:	f44f 6380 	mov.w	r3, #1024	; 0x400
 800393c:	9300      	str	r3, [sp, #0]
 800393e:	4b64      	ldr	r3, [pc, #400]	; (8003ad0 <WIFI_JoinNetwork+0x1e4>)
 8003940:	4962      	ldr	r1, [pc, #392]	; (8003acc <WIFI_JoinNetwork+0x1e0>)
 8003942:	6878      	ldr	r0, [r7, #4]
 8003944:	f7ff ff12 	bl	800376c <WIFI_SendATCommand>
 8003948:	687b      	ldr	r3, [r7, #4]
 800394a:	7b1b      	ldrb	r3, [r3, #12]
 800394c:	461a      	mov	r2, r3
 800394e:	4962      	ldr	r1, [pc, #392]	; (8003ad8 <WIFI_JoinNetwork+0x1ec>)
 8003950:	485e      	ldr	r0, [pc, #376]	; (8003acc <WIFI_JoinNetwork+0x1e0>)
 8003952:	f00a fbd7 	bl	800e104 <siprintf>
 8003956:	6178      	str	r0, [r7, #20]
 8003958:	697b      	ldr	r3, [r7, #20]
 800395a:	b29b      	uxth	r3, r3
 800395c:	3301      	adds	r3, #1
 800395e:	b29a      	uxth	r2, r3
 8003960:	f44f 6380 	mov.w	r3, #1024	; 0x400
 8003964:	9300      	str	r3, [sp, #0]
 8003966:	4b5a      	ldr	r3, [pc, #360]	; (8003ad0 <WIFI_JoinNetwork+0x1e4>)
 8003968:	4958      	ldr	r1, [pc, #352]	; (8003acc <WIFI_JoinNetwork+0x1e0>)
 800396a:	6878      	ldr	r0, [r7, #4]
 800396c:	f7ff fefe 	bl	800376c <WIFI_SendATCommand>
 8003970:	687b      	ldr	r3, [r7, #4]
 8003972:	7b5b      	ldrb	r3, [r3, #13]
 8003974:	461a      	mov	r2, r3
 8003976:	4959      	ldr	r1, [pc, #356]	; (8003adc <WIFI_JoinNetwork+0x1f0>)
 8003978:	4854      	ldr	r0, [pc, #336]	; (8003acc <WIFI_JoinNetwork+0x1e0>)
 800397a:	f00a fbc3 	bl	800e104 <siprintf>
 800397e:	6178      	str	r0, [r7, #20]
 8003980:	697b      	ldr	r3, [r7, #20]
 8003982:	b29b      	uxth	r3, r3
 8003984:	3301      	adds	r3, #1
 8003986:	b29a      	uxth	r2, r3
 8003988:	f44f 6380 	mov.w	r3, #1024	; 0x400
 800398c:	9300      	str	r3, [sp, #0]
 800398e:	4b50      	ldr	r3, [pc, #320]	; (8003ad0 <WIFI_JoinNetwork+0x1e4>)
 8003990:	494e      	ldr	r1, [pc, #312]	; (8003acc <WIFI_JoinNetwork+0x1e0>)
 8003992:	6878      	ldr	r0, [r7, #4]
 8003994:	f7ff feea 	bl	800376c <WIFI_SendATCommand>
 8003998:	687b      	ldr	r3, [r7, #4]
 800399a:	7b5b      	ldrb	r3, [r3, #13]
 800399c:	2b01      	cmp	r3, #1
 800399e:	d04f      	beq.n	8003a40 <WIFI_JoinNetwork+0x154>
 80039a0:	687b      	ldr	r3, [r7, #4]
 80039a2:	3314      	adds	r3, #20
 80039a4:	461a      	mov	r2, r3
 80039a6:	494e      	ldr	r1, [pc, #312]	; (8003ae0 <WIFI_JoinNetwork+0x1f4>)
 80039a8:	4848      	ldr	r0, [pc, #288]	; (8003acc <WIFI_JoinNetwork+0x1e0>)
 80039aa:	f00a fbab 	bl	800e104 <siprintf>
 80039ae:	6178      	str	r0, [r7, #20]
 80039b0:	697b      	ldr	r3, [r7, #20]
 80039b2:	b29b      	uxth	r3, r3
 80039b4:	3301      	adds	r3, #1
 80039b6:	b29a      	uxth	r2, r3
 80039b8:	f44f 6380 	mov.w	r3, #1024	; 0x400
 80039bc:	9300      	str	r3, [sp, #0]
 80039be:	4b44      	ldr	r3, [pc, #272]	; (8003ad0 <WIFI_JoinNetwork+0x1e4>)
 80039c0:	4942      	ldr	r1, [pc, #264]	; (8003acc <WIFI_JoinNetwork+0x1e0>)
 80039c2:	6878      	ldr	r0, [r7, #4]
 80039c4:	f7ff fed2 	bl	800376c <WIFI_SendATCommand>
 80039c8:	687b      	ldr	r3, [r7, #4]
 80039ca:	3345      	adds	r3, #69	; 0x45
 80039cc:	461a      	mov	r2, r3
 80039ce:	4945      	ldr	r1, [pc, #276]	; (8003ae4 <WIFI_JoinNetwork+0x1f8>)
 80039d0:	483e      	ldr	r0, [pc, #248]	; (8003acc <WIFI_JoinNetwork+0x1e0>)
 80039d2:	f00a fb97 	bl	800e104 <siprintf>
 80039d6:	6178      	str	r0, [r7, #20]
 80039d8:	697b      	ldr	r3, [r7, #20]
 80039da:	b29b      	uxth	r3, r3
 80039dc:	3301      	adds	r3, #1
 80039de:	b29a      	uxth	r2, r3
 80039e0:	f44f 6380 	mov.w	r3, #1024	; 0x400
 80039e4:	9300      	str	r3, [sp, #0]
 80039e6:	4b3a      	ldr	r3, [pc, #232]	; (8003ad0 <WIFI_JoinNetwork+0x1e4>)
 80039e8:	4938      	ldr	r1, [pc, #224]	; (8003acc <WIFI_JoinNetwork+0x1e0>)
 80039ea:	6878      	ldr	r0, [r7, #4]
 80039ec:	f7ff febe 	bl	800376c <WIFI_SendATCommand>
 80039f0:	687b      	ldr	r3, [r7, #4]
 80039f2:	3356      	adds	r3, #86	; 0x56
 80039f4:	461a      	mov	r2, r3
 80039f6:	493c      	ldr	r1, [pc, #240]	; (8003ae8 <WIFI_JoinNetwork+0x1fc>)
 80039f8:	4834      	ldr	r0, [pc, #208]	; (8003acc <WIFI_JoinNetwork+0x1e0>)
 80039fa:	f00a fb83 	bl	800e104 <siprintf>
 80039fe:	6178      	str	r0, [r7, #20]
 8003a00:	697b      	ldr	r3, [r7, #20]
 8003a02:	b29b      	uxth	r3, r3
 8003a04:	3301      	adds	r3, #1
 8003a06:	b29a      	uxth	r2, r3
 8003a08:	f44f 6380 	mov.w	r3, #1024	; 0x400
 8003a0c:	9300      	str	r3, [sp, #0]
 8003a0e:	4b30      	ldr	r3, [pc, #192]	; (8003ad0 <WIFI_JoinNetwork+0x1e4>)
 8003a10:	492e      	ldr	r1, [pc, #184]	; (8003acc <WIFI_JoinNetwork+0x1e0>)
 8003a12:	6878      	ldr	r0, [r7, #4]
 8003a14:	f7ff feaa 	bl	800376c <WIFI_SendATCommand>
 8003a18:	687b      	ldr	r3, [r7, #4]
 8003a1a:	3367      	adds	r3, #103	; 0x67
 8003a1c:	461a      	mov	r2, r3
 8003a1e:	4933      	ldr	r1, [pc, #204]	; (8003aec <WIFI_JoinNetwork+0x200>)
 8003a20:	482a      	ldr	r0, [pc, #168]	; (8003acc <WIFI_JoinNetwork+0x1e0>)
 8003a22:	f00a fb6f 	bl	800e104 <siprintf>
 8003a26:	6178      	str	r0, [r7, #20]
 8003a28:	697b      	ldr	r3, [r7, #20]
 8003a2a:	b29b      	uxth	r3, r3
 8003a2c:	3301      	adds	r3, #1
 8003a2e:	b29a      	uxth	r2, r3
 8003a30:	f44f 6380 	mov.w	r3, #1024	; 0x400
 8003a34:	9300      	str	r3, [sp, #0]
 8003a36:	4b26      	ldr	r3, [pc, #152]	; (8003ad0 <WIFI_JoinNetwork+0x1e4>)
 8003a38:	4924      	ldr	r1, [pc, #144]	; (8003acc <WIFI_JoinNetwork+0x1e0>)
 8003a3a:	6878      	ldr	r0, [r7, #4]
 8003a3c:	f7ff fe96 	bl	800376c <WIFI_SendATCommand>
 8003a40:	492b      	ldr	r1, [pc, #172]	; (8003af0 <WIFI_JoinNetwork+0x204>)
 8003a42:	4822      	ldr	r0, [pc, #136]	; (8003acc <WIFI_JoinNetwork+0x1e0>)
 8003a44:	f00a fb5e 	bl	800e104 <siprintf>
 8003a48:	6178      	str	r0, [r7, #20]
 8003a4a:	697b      	ldr	r3, [r7, #20]
 8003a4c:	b29b      	uxth	r3, r3
 8003a4e:	3301      	adds	r3, #1
 8003a50:	b29a      	uxth	r2, r3
 8003a52:	f44f 6380 	mov.w	r3, #1024	; 0x400
 8003a56:	9300      	str	r3, [sp, #0]
 8003a58:	4b1d      	ldr	r3, [pc, #116]	; (8003ad0 <WIFI_JoinNetwork+0x1e4>)
 8003a5a:	491c      	ldr	r1, [pc, #112]	; (8003acc <WIFI_JoinNetwork+0x1e0>)
 8003a5c:	6878      	ldr	r0, [r7, #4]
 8003a5e:	f7ff fe85 	bl	800376c <WIFI_SendATCommand>
 8003a62:	4924      	ldr	r1, [pc, #144]	; (8003af4 <WIFI_JoinNetwork+0x208>)
 8003a64:	481a      	ldr	r0, [pc, #104]	; (8003ad0 <WIFI_JoinNetwork+0x1e4>)
 8003a66:	f00a fbd4 	bl	800e212 <strstr>
 8003a6a:	4603      	mov	r3, r0
 8003a6c:	2b00      	cmp	r3, #0
 8003a6e:	d001      	beq.n	8003a74 <WIFI_JoinNetwork+0x188>
 8003a70:	f7fe fafa 	bl	8002068 <Error_Handler>
 8003a74:	687b      	ldr	r3, [r7, #4]
 8003a76:	7b5b      	ldrb	r3, [r3, #13]
 8003a78:	2b01      	cmp	r3, #1
 8003a7a:	d11f      	bne.n	8003abc <WIFI_JoinNetwork+0x1d0>
 8003a7c:	212c      	movs	r1, #44	; 0x2c
 8003a7e:	4814      	ldr	r0, [pc, #80]	; (8003ad0 <WIFI_JoinNetwork+0x1e4>)
 8003a80:	f00a fbb2 	bl	800e1e8 <strchr>
 8003a84:	6138      	str	r0, [r7, #16]
 8003a86:	693b      	ldr	r3, [r7, #16]
 8003a88:	3301      	adds	r3, #1
 8003a8a:	212c      	movs	r1, #44	; 0x2c
 8003a8c:	4618      	mov	r0, r3
 8003a8e:	f00a fbab 	bl	800e1e8 <strchr>
 8003a92:	60f8      	str	r0, [r7, #12]
 8003a94:	693b      	ldr	r3, [r7, #16]
 8003a96:	2b00      	cmp	r3, #0
 8003a98:	d002      	beq.n	8003aa0 <WIFI_JoinNetwork+0x1b4>
 8003a9a:	68fb      	ldr	r3, [r7, #12]
 8003a9c:	2b00      	cmp	r3, #0
 8003a9e:	d101      	bne.n	8003aa4 <WIFI_JoinNetwork+0x1b8>
 8003aa0:	f7fe fae2 	bl	8002068 <Error_Handler>
 8003aa4:	687b      	ldr	r3, [r7, #4]
 8003aa6:	f103 0014 	add.w	r0, r3, #20
 8003aaa:	68fa      	ldr	r2, [r7, #12]
 8003aac:	693b      	ldr	r3, [r7, #16]
 8003aae:	1ad3      	subs	r3, r2, r3
 8003ab0:	4619      	mov	r1, r3
 8003ab2:	693b      	ldr	r3, [r7, #16]
 8003ab4:	3301      	adds	r3, #1
 8003ab6:	461a      	mov	r2, r3
 8003ab8:	f00a faf0 	bl	800e09c <sniprintf>
 8003abc:	2300      	movs	r3, #0
 8003abe:	4618      	mov	r0, r3
 8003ac0:	3718      	adds	r7, #24
 8003ac2:	46bd      	mov	sp, r7
 8003ac4:	bd80      	pop	{r7, pc}
 8003ac6:	bf00      	nop
 8003ac8:	08010a30 	stmdaeq	r1, {r4, r5, r9, fp}
 8003acc:	20003e64 	andcs	r3, r0, r4, ror #28
 8003ad0:	20004264 	andcs	r4, r0, r4, ror #4
 8003ad4:	08010a38 	stmdaeq	r1, {r3, r4, r5, r9, fp}
 8003ad8:	08010a40 	stmdaeq	r1, {r6, r9, fp}
 8003adc:	08010a48 	stmdaeq	r1, {r3, r6, r9, fp}
 8003ae0:	08010a50 	stmdaeq	r1, {r4, r6, r9, fp}
 8003ae4:	08010a58 	stmdaeq	r1, {r3, r4, r6, r9, fp}
 8003ae8:	08010a60 	stmdaeq	r1, {r5, r6, r9, fp}
 8003aec:	08010a68 	stmdaeq	r1, {r3, r5, r6, r9, fp}
 8003af0:	08010a70 	stmdaeq	r1, {r4, r5, r6, r9, fp}
 8003af4:	08010a74 	stmdaeq	r1, {r2, r4, r5, r6, r9, fp}

08003af8 <WIFI_ConnectServer>:
 8003af8:	b580      	push	{r7, lr}
 8003afa:	b088      	sub	sp, #32
 8003afc:	af02      	add	r7, sp, #8
 8003afe:	60f8      	str	r0, [r7, #12]
 8003b00:	60b9      	str	r1, [r7, #8]
 8003b02:	607a      	str	r2, [r7, #4]
 8003b04:	2300      	movs	r3, #0
 8003b06:	617b      	str	r3, [r7, #20]
 8003b08:	492d      	ldr	r1, [pc, #180]	; (8003bc0 <WIFI_ConnectServer+0xc8>)
 8003b0a:	482e      	ldr	r0, [pc, #184]	; (8003bc4 <WIFI_ConnectServer+0xcc>)
 8003b0c:	f00a fafa 	bl	800e104 <siprintf>
 8003b10:	6178      	str	r0, [r7, #20]
 8003b12:	697b      	ldr	r3, [r7, #20]
 8003b14:	b29b      	uxth	r3, r3
 8003b16:	3301      	adds	r3, #1
 8003b18:	b29a      	uxth	r2, r3
 8003b1a:	f44f 6380 	mov.w	r3, #1024	; 0x400
 8003b1e:	9300      	str	r3, [sp, #0]
 8003b20:	4b29      	ldr	r3, [pc, #164]	; (8003bc8 <WIFI_ConnectServer+0xd0>)
 8003b22:	4928      	ldr	r1, [pc, #160]	; (8003bc4 <WIFI_ConnectServer+0xcc>)
 8003b24:	68f8      	ldr	r0, [r7, #12]
 8003b26:	f7ff fe21 	bl	800376c <WIFI_SendATCommand>
 8003b2a:	4927      	ldr	r1, [pc, #156]	; (8003bc8 <WIFI_ConnectServer+0xd0>)
 8003b2c:	4825      	ldr	r0, [pc, #148]	; (8003bc4 <WIFI_ConnectServer+0xcc>)
 8003b2e:	f7ff fccb 	bl	80034c8 <WIFI_DEBUG>
 8003b32:	68ba      	ldr	r2, [r7, #8]
 8003b34:	4925      	ldr	r1, [pc, #148]	; (8003bcc <WIFI_ConnectServer+0xd4>)
 8003b36:	4823      	ldr	r0, [pc, #140]	; (8003bc4 <WIFI_ConnectServer+0xcc>)
 8003b38:	f00a fae4 	bl	800e104 <siprintf>
 8003b3c:	6178      	str	r0, [r7, #20]
 8003b3e:	697b      	ldr	r3, [r7, #20]
 8003b40:	b29b      	uxth	r3, r3
 8003b42:	3301      	adds	r3, #1
 8003b44:	b29a      	uxth	r2, r3
 8003b46:	f44f 6380 	mov.w	r3, #1024	; 0x400
 8003b4a:	9300      	str	r3, [sp, #0]
 8003b4c:	4b1e      	ldr	r3, [pc, #120]	; (8003bc8 <WIFI_ConnectServer+0xd0>)
 8003b4e:	491d      	ldr	r1, [pc, #116]	; (8003bc4 <WIFI_ConnectServer+0xcc>)
 8003b50:	68f8      	ldr	r0, [r7, #12]
 8003b52:	f7ff fe0b 	bl	800376c <WIFI_SendATCommand>
 8003b56:	491c      	ldr	r1, [pc, #112]	; (8003bc8 <WIFI_ConnectServer+0xd0>)
 8003b58:	481a      	ldr	r0, [pc, #104]	; (8003bc4 <WIFI_ConnectServer+0xcc>)
 8003b5a:	f7ff fcb5 	bl	80034c8 <WIFI_DEBUG>
 8003b5e:	687a      	ldr	r2, [r7, #4]
 8003b60:	491b      	ldr	r1, [pc, #108]	; (8003bd0 <WIFI_ConnectServer+0xd8>)
 8003b62:	4818      	ldr	r0, [pc, #96]	; (8003bc4 <WIFI_ConnectServer+0xcc>)
 8003b64:	f00a face 	bl	800e104 <siprintf>
 8003b68:	6178      	str	r0, [r7, #20]
 8003b6a:	697b      	ldr	r3, [r7, #20]
 8003b6c:	b29b      	uxth	r3, r3
 8003b6e:	3301      	adds	r3, #1
 8003b70:	b29a      	uxth	r2, r3
 8003b72:	f44f 6380 	mov.w	r3, #1024	; 0x400
 8003b76:	9300      	str	r3, [sp, #0]
 8003b78:	4b13      	ldr	r3, [pc, #76]	; (8003bc8 <WIFI_ConnectServer+0xd0>)
